
./build/lithium.elf：     文件格式 elf32-i386

Contents of section .text:
 2000000 d65052e8 00000000 28000000 02afad17  .PR.....(.......
 2000010 05000000 14000000 00040000 00030000  ................
 2000020 20000000 00000000 ffffffff 5589e583   ...........U...
 2000030 ec08908b 450883c0 070fb600 0fb6c083  ....E...........
 2000040 ec0c50e8 34070000 83c410c0 e8063c01  ..P.4.........<.
 2000050 74e19090 c9c35589 e583ec28 8b450c89  t.....U....(.E..
 2000060 45e08b45 108945e4 817de4ff ff000076  E..E..E..}.....v
 2000070 0ab8ffff ffffe92e 02000083 ec0cff75  ...............u
 2000080 08e8a6ff ffff83c4 108b4508 83c0010f  ..........E.....
 2000090 b6000fb6 c083ec08 6a0050e8 1e070000  ........j.P.....
 20000a0 83c4108b 450883c0 020fb600 0fb6c083  ....E...........
 20000b0 ec086a00 50e80407 000083c4 108b45e0  ..j.P.........E.
 20000c0 8b55e40f a4c210c1 e01089d0 31d2c1e8  .U..........1...
 20000d0 080fb6d0 8b450883 c0030fb6 000fb6c0  .....E..........
 20000e0 83ec0852 50e8d406 000083c4 108b45e0  ...RP.........E.
 20000f0 8b55e40f a4c208c1 e00889d0 31d2c1e8  .U..........1...
 2000100 080fb6d0 8b450883 c0040fb6 000fb6c0  .....E..........
 2000110 83ec0852 50e8a406 000083c4 108b45e0  ...RP.........E.
 2000120 8b55e489 d031d2c1 e8080fb6 d08b4508  .U...1........E.
 2000130 83c0050f b6000fb6 c083ec08 5250e87b  ............RP.{
 2000140 06000083 c4108b45 0883c001 0fb6000f  .......E........
 2000150 b6c083ec 086a0050 e8610600 0083c410  .....j.P.a......
 2000160 8b450883 c0020fb6 000fb6c0 83ec086a  .E.............j
 2000170 0150e847 06000083 c4108b45 e00fb6d0  .P.G.......E....
 2000180 8b450883 c0030fb6 000fb6c0 83ec0852  .E.............R
 2000190 50e82806 000083c4 108b45e0 8b55e489  P.(.......E..U..
 20001a0 c2b80000 000089d0 31d2c1e8 080fb6d0  ........1.......
 20001b0 8b450883 c0040fb6 000fb6c0 83ec0852  .E.............R
 20001c0 50e8f805 000083c4 108b45e0 8b55e40f  P.........E..U..
 20001d0 a4c218c1 e01889d0 31d2c1e8 080fb6d0  ........1.......
 20001e0 8b450883 c0050fb6 000fb6c0 83ec0852  .E.............R
 20001f0 50e8c805 000083c4 108b4508 83c0080f  P.........E.....
 2000200 b6000fb6 d08b4508 83c0060f b6000fb6  ......E.........
 2000210 c083ec08 5250e8a3 05000083 c41083ec  ....RP..........
 2000220 0cff7508 e803feff ff83c410 8b450883  ..u..........E..
 2000230 c0070fb6 000fb6c0 83ec086a 2450e87b  ...........j$P.{
 2000240 05000083 c41083ec 0cff7508 e8dbfdff  ..........u.....
 2000250 ff83c410 8b451489 45f4eb22 8b450883  .....E..E..".E..
 2000260 c0010fb6 000fb6c0 83ec0c50 e8e60400  ...........P....
 2000270 0083c410 8b55f466 89028345 f4028b45  .....U.f...E...E
 2000280 0883c007 0fb6000f b6c083ec 0c50e8e9  .............P..
 2000290 04000083 c4100fb6 c0c1e004 c1f80783  ................
 20002a0 f80174b8 b8000000 00c9c355 89e583ec  ..t........U....
 20002b0 288b4510 8945e08b 45148945 e4817de4  (.E..E..E..E..}.
 20002c0 ffff0000 760ab8ff ffffffe9 32020000  ....v.......2...
 20002d0 83ec0cff 7508e851 fdffff83 c4108b45  ....u..Q.......E
 20002e0 0883c001 0fb6000f b6c083ec 086a0050  .............j.P
 20002f0 e8c90400 0083c410 8b450883 c0020fb6  .........E......
 2000300 000fb6c0 83ec086a 0050e8af 04000083  .......j.P......
 2000310 c4108b45 e08b55e4 0fa4c210 c1e01089  ...E..U.........
 2000320 d031d2c1 e8080fb6 d08b4508 83c0030f  .1........E.....
 2000330 b6000fb6 c083ec08 5250e87f 04000083  ........RP......
 2000340 c4108b45 e08b55e4 0fa4c208 c1e00889  ...E..U.........
 2000350 d031d2c1 e8080fb6 d08b4508 83c0040f  .1........E.....
 2000360 b6000fb6 c083ec08 5250e84f 04000083  ........RP.O....
 2000370 c4108b45 e08b55e4 89d031d2 c1e8080f  ...E..U...1.....
 2000380 b6d08b45 0883c005 0fb6000f b6c083ec  ...E............
 2000390 085250e8 26040000 83c4108b 450883c0  .RP.&.......E...
 20003a0 010fb600 0fb6c083 ec086a00 50e80c04  ..........j.P...
 20003b0 000083c4 108b4508 83c0020f b6000fb6  ......E.........
 20003c0 c083ec08 6a0150e8 f2030000 83c4108b  ....j.P.........
 20003d0 45e00fb6 d08b4508 83c0030f b6000fb6  E.....E.........
 20003e0 c083ec08 5250e8d3 03000083 c4108b45  ....RP.........E
 20003f0 e08b55e4 89c2b800 00000089 d031d2c1  ..U..........1..
 2000400 e8080fb6 d08b4508 83c0040f b6000fb6  ......E.........
 2000410 c083ec08 5250e8a3 03000083 c4108b45  ....RP.........E
 2000420 e08b55e4 0fa4c218 c1e01889 d031d2c1  ..U..........1..
 2000430 e8080fb6 d08b4508 83c0050f b6000fb6  ......E.........
 2000440 c083ec08 5250e873 03000083 c4108b45  ....RP.s.......E
 2000450 0883c008 0fb6000f b6d08b45 0883c006  ...........E....
 2000460 0fb6000f b6c083ec 085250e8 4e030000  .........RP.N...
 2000470 83c41083 ec0cff75 08e8aefb ffff83c4  .......u........
 2000480 108b4508 83c0070f b6000fb6 c083ec08  ..E.............
 2000490 6a3450e8 26030000 83c41083 ec0cff75  j4P.&..........u
 20004a0 08e886fb ffff83c4 108b450c 8945f4eb  ..........E..E..
 20004b0 268b45f4 0fb7000f b7d08b45 0883c001  &.E........E....
 20004c0 0fb6000f b6c083ec 085250e8 cd020000  .........RP.....
 20004d0 83c41083 45f4028b 450883c0 070fb600  ....E...E.......
 20004e0 0fb6c083 ec0c50e8 90020000 83c4100f  ......P.........
 20004f0 b6c0c1e0 04c1f807 83f80174 b4b80000  ...........t....
 2000500 0000c9c3 5589e583 ec10668c c8668945  ....U.....f..f.E
 2000510 fe0fb745 fec9c355 89e583ec 0883ec0c  ...E...U........
 2000520 6a0068ff ffff0068 321e0002 6a116a00  j.h....h2...j.j.
 2000530 e81a1700 0083c420 0fb70580 3200020f  ....... ....2...
 2000540 b7c083ec 0c6a0068 ffffff00 506a106a  .....j.h....Pj.j
 2000550 00e85d17 000083c4 200fb705 80320002  ..]..... ....2..
 2000560 83c00166 a3803200 0283ec08 6a206a20  ...f..2.....j j 
 2000570 e8490200 0083c410 90c9c355 89e55383  .I.........U..S.
 2000580 ec048b1d 60220002 83ec0c6a 60e8ea01  ....`".....j`...
 2000590 000083c4 108803a1 60220002 83c001a3  ........`"......
 20005a0 60220002 83ec0c6a 0068ffff ff00683d  `".....j.h....h=
 20005b0 1e00026a 0f6a00e8 93160000 83c4200f  ...j.j........ .
 20005c0 b7058032 00020fb7 c083ec0c 6a0068ff  ...2........j.h.
 20005d0 ffff0050 6a106a00 e8d61600 0083c420  ...Pj.j........ 
 20005e0 0fb70580 32000283 c00166a3 80320002  ....2.....f..2..
 20005f0 83ec086a 206a20e8 c2010000 83c41090  ...j j .........
 2000600 8b5dfcc9 c35589e5 83ec1883 ec0c6a00  .]...U........j.
 2000610 68ffffff 0068501e 00026a09 6a00e82c  h....hP...j.j..,
 2000620 16000083 c420c705 a0340002 510b0002  ..... ...4..Q...
 2000630 c745f400 000000eb 1783ec08 68170500  .E..........h...
 2000640 02ff75f4 e8c80000 0083c410 8345f401  ..u..........E..
 2000650 837df41f 76e383ec 08687b05 00026a20  .}..v....h{...j 
 2000660 e8ac0000 0083c410 83ec086a 116a20e8  ...........j.j .
 2000670 4a010000 83c41083 ec086a20 6a21e83b  J.........j j!.;
 2000680 01000083 c41083ec 086a046a 21e82c01  .........j.j!.,.
 2000690 000083c4 1083ec08 6a016a21 e81d0100  ........j.j!....
 20006a0 0083c410 83ec086a 1168a000 0000e80b  .......j.h......
 20006b0 01000083 c41083ec 086a2868 a1000000  .........j(h....
 20006c0 e8f90000 0083c410 83ec086a 0268a100  ...........j.h..
 20006d0 0000e8e7 00000083 c41083ec 086a0168  .............j.h
 20006e0 a1000000 e8d50000 0083c410 83ec086a  ...............j
 20006f0 006a21e8 c6000000 83c41083 ec086a00  .j!...........j.
 2000700 68a10000 00e8b400 000083c4 10fb90c9  h...............
 2000710 c35589e5 83ec10a1 a0340002 8b5508c1  .U.......4...U..
 2000720 e20301d0 8945fc8b 450c89c2 8b45fc66  .....E..E....E.f
 2000730 89108b45 0cc1e810 89c28b45 fc668950  ...E.......E.f.P
 2000740 06e8befd ffff8b55 fc668942 028b45fc  .......U.f.B..E.
 2000750 c640058e 90c9c355 89e583ec 148b4508  .@.....U......E.
 2000760 668945ec 66c745fe 00000fb7 45ec89c2  f.E.f.E.....E...
 2000770 66ed6689 45fe0fb7 45fec9c3 5589e583  f.f.E...E...U...
 2000780 ec148b45 08668945 ecc645ff 000fb745  ...E.f.E..E....E
 2000790 ec89c2ec 8845ff0f b645ffc9 c35589e5  .....E...E...U..
 20007a0 83ec088b 55088b45 0c668955 fc668945  ....U..E.f.U.f.E
 20007b0 f80fb755 fc0fb745 f866ef90 c9c35589  ...U...E.f....U.
 20007c0 e583ec08 8b45088b 550c6689 45fc89d0  .....E..U.f.E...
 20007d0 8845f80f b755fc0f b645f8ee 90c9c355  .E...U...E.....U
 20007e0 89e583ec 10908945 fc8b45fc c9c35589  .......E..E...U.
 20007f0 e55383ec 109089d8 8945f88b 45f883c4  .S.......E..E...
 2000800 105b5dc3 5589e583 ec109089 c88945fc  .[].U.........E.
 2000810 8b45fcc9 c35589e5 83ec1090 89d08945  .E...U.........E
 2000820 fc8b45fc c9c35589 e55683ec 109089f0  ..E...U..V......
 2000830 8945f88b 45f883c4 105e5dc3 5589e557  .E..E....^].U..W
 2000840 83ec1090 89f88945 f88b45f8 83c4105f  .......E..E...._
 2000850 5dc35589 e583ec08 e8b8ffff ffa3a434  ].U............4
 2000860 0002c705 a8340002 00040000 c705ac34  .....4.........4
 2000870 00020003 000083ec 0c6a0068 ffffff00  .........j.h....
 2000880 68601e00 026a006a 00e8c113 000083c4  h`...j.j........
 2000890 2083ec0c 6a0068ff ffff0068 781e0002   ...j.h....hx...
 20008a0 6a016a00 e8a61300 0083c420 e82effff  j.j........ ....
 20008b0 ff83ec0c 6a0068ff ffff0050 6a016a04  ....j.h....Pj.j.
 20008c0 e8ee1300 0083c420 83ec0c6a 0068ffff  ....... ...j.h..
 20008d0 ff00687d 1e00026a 026a00e8 6f130000  ..h}...j.j..o...
 20008e0 83c420e8 06ffffff 83ec0c6a 0068ffff  .. ........j.h..
 20008f0 ff00506a 026a04e8 b7130000 83c42083  ..Pj.j........ .
 2000900 ec0c6a00 68ffffff 0068821e 00026a03  ..j.h....h....j.
 2000910 6a00e838 13000083 c420e8e5 feffff83  j..8..... ......
 2000920 ec0c6a00 68ffffff 00506a03 6a04e880  ..j.h....Pj.j...
 2000930 13000083 c42083ec 0c6a0068 ffffff00  ..... ...j.h....
 2000940 68871e00 026a046a 00e80113 000083c4  h....j.j........
 2000950 20e8bffe ffff83ec 0c6a0068 ffffff00   ........j.h....
 2000960 506a046a 04e84913 000083c4 2083ec0c  Pj.j..I..... ...
 2000970 6a0068ff ffff0068 8c1e0002 6a056a00  j.h....h....j.j.
 2000980 e8ca1200 0083c420 e899feff ff83ec0c  ....... ........
 2000990 6a0068ff ffff0050 6a056a04 e8121300  j.h....Pj.j.....
 20009a0 0083c420 83ec0c6a 0068ffff ff006891  ... ...j.h....h.
 20009b0 1e00026a 066a00e8 93120000 83c420e8  ...j.j........ .
 20009c0 78feffff 83ec0c6a 0068ffff ff00506a  x......j.h....Pj
 20009d0 066a04e8 db120000 83c42083 ec0c6a00  .j........ ...j.
 20009e0 68ffffff 0068981e 00026a07 6a00e85c  h....h....j.j..\
 20009f0 12000083 c420a1a4 34000283 ec0c6a00  ..... ..4.....j.
 2000a00 68ffffff 00506a07 6a04e8a4 12000083  h....Pj.j.......
 2000a10 c420a1a8 34000283 ec0c6a00 68ffffff  . ..4.....j.h...
 2000a20 00506a07 6a11e888 12000083 c420a1ac  .Pj.j........ ..
 2000a30 34000283 ec0c6a00 68ffffff 00506a07  4.....j.h....Pj.
 2000a40 6a20e86c 12000083 c420a1a8 340002c1  j .l..... ..4...
 2000a50 e80383ec 0c6a0068 ffffff00 506a076a  .....j.h....Pj.j
 2000a60 31e84d12 000083c4 20a1ac34 0002c1e8  1.M..... ..4....
 2000a70 0483ec0c 6a0068ff ffff0050 6a076a3f  ....j.h....Pj.j?
 2000a80 e82e1200 0083c420 83ec0c6a 00680000  ....... ...j.h..
 2000a90 ff006a30 6a086a00 e8c81000 0083c420  ..j0j.j........ 
 2000aa0 83ec0c6a 006800ff 00006a30 6a086a01  ...j.h....j0j.j.
 2000ab0 e8b01000 0083c420 83ec0c6a 0068ff00  ....... ...j.h..
 2000ac0 00006a30 6a086a02 e8981000 0083c420  ..j0j.j........ 
 2000ad0 83ec0c6a 006800ff ff006a30 6a086a03  ...j.h....j0j.j.
 2000ae0 e8801000 0083c420 83ec0c6a 0068ffff  ....... ...j.h..
 2000af0 00006a30 6a086a04 e8681000 0083c420  ..j0j.j..h..... 
 2000b00 83ec0c6a 0068ff00 ff006a30 6a086a05  ...j.h....j0j.j.
 2000b10 e8501000 0083c420 e8e8faff ffe83510  .P..... ......5.
 2000b20 000090c9 c389d883 c301833b 0775f881  ...........;.u..
 2000b30 7b041003 000075ef 81c33802 0000b900  {.....u...8.....
 2000b40 5000008b 130f011d 511b0002 e901fdff  P.......Q.......
 2000b50 ff000000 00000000 00000000 00000000  ................
 2000b60 00000000 00000000 00000000 00000000  ................
 2000b70 00000000 00000000 00000000 00000000  ................
 2000b80 00000000 00000000 00000000 00000000  ................
 2000b90 00000000 00000000 00000000 00000000  ................
 2000ba0 00000000 00000000 00000000 00000000  ................
 2000bb0 00000000 00000000 00000000 00000000  ................
 2000bc0 00000000 00000000 00000000 00000000  ................
 2000bd0 00000000 00000000 00000000 00000000  ................
 2000be0 00000000 00000000 00000000 00000000  ................
 2000bf0 00000000 00000000 00000000 00000000  ................
 2000c00 00000000 00000000 00000000 00000000  ................
 2000c10 00000000 00000000 00000000 00000000  ................
 2000c20 00000000 00000000 00000000 00000000  ................
 2000c30 00000000 00000000 00000000 00000000  ................
 2000c40 00000000 00000000 00000000 00000000  ................
 2000c50 00000000 00000000 00000000 00000000  ................
 2000c60 00000000 00000000 00000000 00000000  ................
 2000c70 00000000 00000000 00000000 00000000  ................
 2000c80 00000000 00000000 00000000 00000000  ................
 2000c90 00000000 00000000 00000000 00000000  ................
 2000ca0 00000000 00000000 00000000 00000000  ................
 2000cb0 00000000 00000000 00000000 00000000  ................
 2000cc0 00000000 00000000 00000000 00000000  ................
 2000cd0 00000000 00000000 00000000 00000000  ................
 2000ce0 00000000 00000000 00000000 00000000  ................
 2000cf0 00000000 00000000 00000000 00000000  ................
 2000d00 00000000 00000000 00000000 00000000  ................
 2000d10 00000000 00000000 00000000 00000000  ................
 2000d20 00000000 00000000 00000000 00000000  ................
 2000d30 00000000 00000000 00000000 00000000  ................
 2000d40 00000000 00000000 00000000 00000000  ................
 2000d50 00000000 00000000 00000000 00000000  ................
 2000d60 00000000 00000000 00000000 00000000  ................
 2000d70 00000000 00000000 00000000 00000000  ................
 2000d80 00000000 00000000 00000000 00000000  ................
 2000d90 00000000 00000000 00000000 00000000  ................
 2000da0 00000000 00000000 00000000 00000000  ................
 2000db0 00000000 00000000 00000000 00000000  ................
 2000dc0 00000000 00000000 00000000 00000000  ................
 2000dd0 00000000 00000000 00000000 00000000  ................
 2000de0 00000000 00000000 00000000 00000000  ................
 2000df0 00000000 00000000 00000000 00000000  ................
 2000e00 00000000 00000000 00000000 00000000  ................
 2000e10 00000000 00000000 00000000 00000000  ................
 2000e20 00000000 00000000 00000000 00000000  ................
 2000e30 00000000 00000000 00000000 00000000  ................
 2000e40 00000000 00000000 00000000 00000000  ................
 2000e50 00000000 00000000 00000000 00000000  ................
 2000e60 00000000 00000000 00000000 00000000  ................
 2000e70 00000000 00000000 00000000 00000000  ................
 2000e80 00000000 00000000 00000000 00000000  ................
 2000e90 00000000 00000000 00000000 00000000  ................
 2000ea0 00000000 00000000 00000000 00000000  ................
 2000eb0 00000000 00000000 00000000 00000000  ................
 2000ec0 00000000 00000000 00000000 00000000  ................
 2000ed0 00000000 00000000 00000000 00000000  ................
 2000ee0 00000000 00000000 00000000 00000000  ................
 2000ef0 00000000 00000000 00000000 00000000  ................
 2000f00 00000000 00000000 00000000 00000000  ................
 2000f10 00000000 00000000 00000000 00000000  ................
 2000f20 00000000 00000000 00000000 00000000  ................
 2000f30 00000000 00000000 00000000 00000000  ................
 2000f40 00000000 00000000 00000000 00000000  ................
 2000f50 00000000 00000000 00000000 00000000  ................
 2000f60 00000000 00000000 00000000 00000000  ................
 2000f70 00000000 00000000 00000000 00000000  ................
 2000f80 00000000 00000000 00000000 00000000  ................
 2000f90 00000000 00000000 00000000 00000000  ................
 2000fa0 00000000 00000000 00000000 00000000  ................
 2000fb0 00000000 00000000 00000000 00000000  ................
 2000fc0 00000000 00000000 00000000 00000000  ................
 2000fd0 00000000 00000000 00000000 00000000  ................
 2000fe0 00000000 00000000 00000000 00000000  ................
 2000ff0 00000000 00000000 00000000 00000000  ................
 2001000 00000000 00000000 00000000 00000000  ................
 2001010 00000000 00000000 00000000 00000000  ................
 2001020 00000000 00000000 00000000 00000000  ................
 2001030 00000000 00000000 00000000 00000000  ................
 2001040 00000000 00000000 00000000 00000000  ................
 2001050 00000000 00000000 00000000 00000000  ................
 2001060 00000000 00000000 00000000 00000000  ................
 2001070 00000000 00000000 00000000 00000000  ................
 2001080 00000000 00000000 00000000 00000000  ................
 2001090 00000000 00000000 00000000 00000000  ................
 20010a0 00000000 00000000 00000000 00000000  ................
 20010b0 00000000 00000000 00000000 00000000  ................
 20010c0 00000000 00000000 00000000 00000000  ................
 20010d0 00000000 00000000 00000000 00000000  ................
 20010e0 00000000 00000000 00000000 00000000  ................
 20010f0 00000000 00000000 00000000 00000000  ................
 2001100 00000000 00000000 00000000 00000000  ................
 2001110 00000000 00000000 00000000 00000000  ................
 2001120 00000000 00000000 00000000 00000000  ................
 2001130 00000000 00000000 00000000 00000000  ................
 2001140 00000000 00000000 00000000 00000000  ................
 2001150 00000000 00000000 00000000 00000000  ................
 2001160 00000000 00000000 00000000 00000000  ................
 2001170 00000000 00000000 00000000 00000000  ................
 2001180 00000000 00000000 00000000 00000000  ................
 2001190 00000000 00000000 00000000 00000000  ................
 20011a0 00000000 00000000 00000000 00000000  ................
 20011b0 00000000 00000000 00000000 00000000  ................
 20011c0 00000000 00000000 00000000 00000000  ................
 20011d0 00000000 00000000 00000000 00000000  ................
 20011e0 00000000 00000000 00000000 00000000  ................
 20011f0 00000000 00000000 00000000 00000000  ................
 2001200 00000000 00000000 00000000 00000000  ................
 2001210 00000000 00000000 00000000 00000000  ................
 2001220 00000000 00000000 00000000 00000000  ................
 2001230 00000000 00000000 00000000 00000000  ................
 2001240 00000000 00000000 00000000 00000000  ................
 2001250 00000000 00000000 00000000 00000000  ................
 2001260 00000000 00000000 00000000 00000000  ................
 2001270 00000000 00000000 00000000 00000000  ................
 2001280 00000000 00000000 00000000 00000000  ................
 2001290 00000000 00000000 00000000 00000000  ................
 20012a0 00000000 00000000 00000000 00000000  ................
 20012b0 00000000 00000000 00000000 00000000  ................
 20012c0 00000000 00000000 00000000 00000000  ................
 20012d0 00000000 00000000 00000000 00000000  ................
 20012e0 00000000 00000000 00000000 00000000  ................
 20012f0 00000000 00000000 00000000 00000000  ................
 2001300 00000000 00000000 00000000 00000000  ................
 2001310 00000000 00000000 00000000 00000000  ................
 2001320 00000000 00000000 00000000 00000000  ................
 2001330 00000000 00000000 00000000 00000000  ................
 2001340 00000000 00000000 00000000 00000000  ................
 2001350 00000000 00000000 00000000 00000000  ................
 2001360 00000000 00000000 00000000 00000000  ................
 2001370 00000000 00000000 00000000 00000000  ................
 2001380 00000000 00000000 00000000 00000000  ................
 2001390 00000000 00000000 00000000 00000000  ................
 20013a0 00000000 00000000 00000000 00000000  ................
 20013b0 00000000 00000000 00000000 00000000  ................
 20013c0 00000000 00000000 00000000 00000000  ................
 20013d0 00000000 00000000 00000000 00000000  ................
 20013e0 00000000 00000000 00000000 00000000  ................
 20013f0 00000000 00000000 00000000 00000000  ................
 2001400 00000000 00000000 00000000 00000000  ................
 2001410 00000000 00000000 00000000 00000000  ................
 2001420 00000000 00000000 00000000 00000000  ................
 2001430 00000000 00000000 00000000 00000000  ................
 2001440 00000000 00000000 00000000 00000000  ................
 2001450 00000000 00000000 00000000 00000000  ................
 2001460 00000000 00000000 00000000 00000000  ................
 2001470 00000000 00000000 00000000 00000000  ................
 2001480 00000000 00000000 00000000 00000000  ................
 2001490 00000000 00000000 00000000 00000000  ................
 20014a0 00000000 00000000 00000000 00000000  ................
 20014b0 00000000 00000000 00000000 00000000  ................
 20014c0 00000000 00000000 00000000 00000000  ................
 20014d0 00000000 00000000 00000000 00000000  ................
 20014e0 00000000 00000000 00000000 00000000  ................
 20014f0 00000000 00000000 00000000 00000000  ................
 2001500 00000000 00000000 00000000 00000000  ................
 2001510 00000000 00000000 00000000 00000000  ................
 2001520 00000000 00000000 00000000 00000000  ................
 2001530 00000000 00000000 00000000 00000000  ................
 2001540 00000000 00000000 00000000 00000000  ................
 2001550 00000000 00000000 00000000 00000000  ................
 2001560 00000000 00000000 00000000 00000000  ................
 2001570 00000000 00000000 00000000 00000000  ................
 2001580 00000000 00000000 00000000 00000000  ................
 2001590 00000000 00000000 00000000 00000000  ................
 20015a0 00000000 00000000 00000000 00000000  ................
 20015b0 00000000 00000000 00000000 00000000  ................
 20015c0 00000000 00000000 00000000 00000000  ................
 20015d0 00000000 00000000 00000000 00000000  ................
 20015e0 00000000 00000000 00000000 00000000  ................
 20015f0 00000000 00000000 00000000 00000000  ................
 2001600 00000000 00000000 00000000 00000000  ................
 2001610 00000000 00000000 00000000 00000000  ................
 2001620 00000000 00000000 00000000 00000000  ................
 2001630 00000000 00000000 00000000 00000000  ................
 2001640 00000000 00000000 00000000 00000000  ................
 2001650 00000000 00000000 00000000 00000000  ................
 2001660 00000000 00000000 00000000 00000000  ................
 2001670 00000000 00000000 00000000 00000000  ................
 2001680 00000000 00000000 00000000 00000000  ................
 2001690 00000000 00000000 00000000 00000000  ................
 20016a0 00000000 00000000 00000000 00000000  ................
 20016b0 00000000 00000000 00000000 00000000  ................
 20016c0 00000000 00000000 00000000 00000000  ................
 20016d0 00000000 00000000 00000000 00000000  ................
 20016e0 00000000 00000000 00000000 00000000  ................
 20016f0 00000000 00000000 00000000 00000000  ................
 2001700 00000000 00000000 00000000 00000000  ................
 2001710 00000000 00000000 00000000 00000000  ................
 2001720 00000000 00000000 00000000 00000000  ................
 2001730 00000000 00000000 00000000 00000000  ................
 2001740 00000000 00000000 00000000 00000000  ................
 2001750 00000000 00000000 00000000 00000000  ................
 2001760 00000000 00000000 00000000 00000000  ................
 2001770 00000000 00000000 00000000 00000000  ................
 2001780 00000000 00000000 00000000 00000000  ................
 2001790 00000000 00000000 00000000 00000000  ................
 20017a0 00000000 00000000 00000000 00000000  ................
 20017b0 00000000 00000000 00000000 00000000  ................
 20017c0 00000000 00000000 00000000 00000000  ................
 20017d0 00000000 00000000 00000000 00000000  ................
 20017e0 00000000 00000000 00000000 00000000  ................
 20017f0 00000000 00000000 00000000 00000000  ................
 2001800 00000000 00000000 00000000 00000000  ................
 2001810 00000000 00000000 00000000 00000000  ................
 2001820 00000000 00000000 00000000 00000000  ................
 2001830 00000000 00000000 00000000 00000000  ................
 2001840 00000000 00000000 00000000 00000000  ................
 2001850 00000000 00000000 00000000 00000000  ................
 2001860 00000000 00000000 00000000 00000000  ................
 2001870 00000000 00000000 00000000 00000000  ................
 2001880 00000000 00000000 00000000 00000000  ................
 2001890 00000000 00000000 00000000 00000000  ................
 20018a0 00000000 00000000 00000000 00000000  ................
 20018b0 00000000 00000000 00000000 00000000  ................
 20018c0 00000000 00000000 00000000 00000000  ................
 20018d0 00000000 00000000 00000000 00000000  ................
 20018e0 00000000 00000000 00000000 00000000  ................
 20018f0 00000000 00000000 00000000 00000000  ................
 2001900 00000000 00000000 00000000 00000000  ................
 2001910 00000000 00000000 00000000 00000000  ................
 2001920 00000000 00000000 00000000 00000000  ................
 2001930 00000000 00000000 00000000 00000000  ................
 2001940 00000000 00000000 00000000 00000000  ................
 2001950 00000000 00000000 00000000 00000000  ................
 2001960 00000000 00000000 00000000 00000000  ................
 2001970 00000000 00000000 00000000 00000000  ................
 2001980 00000000 00000000 00000000 00000000  ................
 2001990 00000000 00000000 00000000 00000000  ................
 20019a0 00000000 00000000 00000000 00000000  ................
 20019b0 00000000 00000000 00000000 00000000  ................
 20019c0 00000000 00000000 00000000 00000000  ................
 20019d0 00000000 00000000 00000000 00000000  ................
 20019e0 00000000 00000000 00000000 00000000  ................
 20019f0 00000000 00000000 00000000 00000000  ................
 2001a00 00000000 00000000 00000000 00000000  ................
 2001a10 00000000 00000000 00000000 00000000  ................
 2001a20 00000000 00000000 00000000 00000000  ................
 2001a30 00000000 00000000 00000000 00000000  ................
 2001a40 00000000 00000000 00000000 00000000  ................
 2001a50 00000000 00000000 00000000 00000000  ................
 2001a60 00000000 00000000 00000000 00000000  ................
 2001a70 00000000 00000000 00000000 00000000  ................
 2001a80 00000000 00000000 00000000 00000000  ................
 2001a90 00000000 00000000 00000000 00000000  ................
 2001aa0 00000000 00000000 00000000 00000000  ................
 2001ab0 00000000 00000000 00000000 00000000  ................
 2001ac0 00000000 00000000 00000000 00000000  ................
 2001ad0 00000000 00000000 00000000 00000000  ................
 2001ae0 00000000 00000000 00000000 00000000  ................
 2001af0 00000000 00000000 00000000 00000000  ................
 2001b00 00000000 00000000 00000000 00000000  ................
 2001b10 00000000 00000000 00000000 00000000  ................
 2001b20 00000000 00000000 00000000 00000000  ................
 2001b30 00000000 00000000 00000000 00000000  ................
 2001b40 00000000 00000000 00000000 00000000  ................
 2001b50 00ff0f51 0b000255 89e5f490 5dc35589  ...Q...U....].U.
 2001b60 e5fb905d c35589e5 83ec148b 45108845  ...].U......E..E
 2001b70 ec8b15a4 340002a1 a8340002 0faf450c  ....4....4....E.
 2001b80 8d0c008b 450801c8 c1e00501 d08945fc  ....E.........E.
 2001b90 c745f800 000000e9 a5000000 c745f400  .E...........E..
 2001ba0 000000eb 7f0fb645 ecc1e005 89c28b45  .......E.......E
 2001bb0 f801d005 80220002 0fb6000f b6d0b808  ....."..........
 2001bc0 0000002b 45f489c1 d3fa89d0 83e00185  ...+E...........
 2001bd0 c0740a8b 45fc8b55 148910eb 088b45fc  .t..E..U......E.
 2001be0 8b551889 100fb645 ec8b55f8 83c210c1  .U.....E..U.....
 2001bf0 e00501d0 05802200 020fb600 0fb6d0b8  ......".........
 2001c00 08000000 2b45f489 c1d3fa89 d083e001  ....+E..........
 2001c10 85c07408 8b45fc8b 55148910 8345fc04  ..t..E..U....E..
 2001c20 8345f401 837df407 0f8677ff ffff836d  .E...}....w....m
 2001c30 fc20a1a8 340002c1 e0020145 fc8345f8  . ..4......E..E.
 2001c40 01837df8 0f0f8651 ffffff90 90c9c355  ..}....Q.......U
 2001c50 89e583ec 108b450c 8945fcc7 45f80000  ......E..E..E...
 2001c60 0000eb41 8b45100f b6000fb6 c083f80a  ...A.E..........
 2001c70 75068345 fc01eb25 8b45100f b6000fb6  u..E...%.E......
 2001c80 c08b4d08 8b55f801 caff7518 ff751450  ..M..U....u..u.P
 2001c90 ff75fc52 e8ccfeff ff83c414 90834510  .u.R..........E.
 2001ca0 018345f8 018b4510 0fb60084 c075b590  ..E...E......u..
 2001cb0 90c9c355 89e583ec 10c745f1 30783f3f  ...U......E.0x??
 2001cc0 c745f53f 3f3f3f66 c745f93f 3fc645fb  .E.????f.E.??.E.
 2001cd0 00c745fc 02000000 e91e0100 00b80900  ..E.............
 2001ce0 00002b45 fcc1e002 8b551089 c1d3ea89  ..+E.....U......
 2001cf0 d083e00f 83f80f0f 87ee0000 008b0485  ................
 2001d00 e41e0002 ffe08d55 f18b45fc 01d0c600  .......U..E.....
 2001d10 30e9e100 00008d55 f18b45fc 01d0c600  0......U..E.....
 2001d20 31e9d100 00008d55 f18b45fc 01d0c600  1......U..E.....
 2001d30 32e9c100 00008d55 f18b45fc 01d0c600  2......U..E.....
 2001d40 33e9b100 00008d55 f18b45fc 01d0c600  3......U..E.....
 2001d50 34e9a100 00008d55 f18b45fc 01d0c600  4......U..E.....
 2001d60 35e99100 00008d55 f18b45fc 01d0c600  5......U..E.....
 2001d70 36e98100 00008d55 f18b45fc 01d0c600  6......U..E.....
 2001d80 37eb748d 55f18b45 fc01d0c6 0038eb67  7.t.U..E.....8.g
 2001d90 8d55f18b 45fc01d0 c60039eb 5a8d55f1  .U..E.....9.Z.U.
 2001da0 8b45fc01 d0c60041 eb4d8d55 f18b45fc  .E.....A.M.U..E.
 2001db0 01d0c600 42eb408d 55f18b45 fc01d0c6  ....B.@.U..E....
 2001dc0 0043eb33 8d55f18b 45fc01d0 c60044eb  .C.3.U..E.....D.
 2001dd0 268d55f1 8b45fc01 d0c60045 eb198d55  &.U..E.....E...U
 2001de0 f18b45fc 01d0c600 46eb0c8d 55f18b45  ..E.....F...U..E
 2001df0 fc01d0c6 002a9083 45fc0183 7dfc090f  .....*..E...}...
 2001e00 86d8feff ffff7518 ff75148d 45f150ff  ......u..u..E.P.
 2001e10 750cff75 08e835fe ffff83c4 1490c9c3  u..u..5.........
Contents of section .rodata:
 2001e20 f001f101 f201f301 f401f501 f601f701  ................
 2001e30 1000556e 6b6e6f77 20494e54 004b6579  ..Unknow INT.Key
 2001e40 626f7261 64205365 6e742044 61746100  borad Sent Data.
 2001e50 496e6974 20496e74 65727275 70740000  Init Interrupt..
 2001e60 57656c63 6f6d6520 746f204c 69746869  Welcome to Lithi
 2001e70 756d204f 53212100 4541583a 00454258  um OS!!.EAX:.EBX
 2001e80 3a004543 583a0045 44583a00 4553493a  :.ECX:.EDX:.ESI:
 2001e90 00454449 3a000000 5647413a 20202020  .EDI:...VGA:    
 2001ea0 20202020 20202040 20202020 20202020         @        
 2001eb0 20202020 20782020 20202020 20202020       x          
 2001ec0 20202054 4558543a 20202020 20202020     TEXT:        
 2001ed0 20202020 20782020 20202020 20202020       x          
 2001ee0 20200000 061d0002 161d0002 261d0002    ..........&...
 2001ef0 361d0002 461d0002 561d0002 661d0002  6...F...V...f...
 2001f00 761d0002 831d0002 901d0002 9d1d0002  v...............
 2001f10 aa1d0002 b71d0002 c41d0002 d11d0002  ................
 2001f20 de1d0002                             ....            
Contents of section .data:
 2002260 a0320002 00000000 00000000 00000000  .2..............
 2002270 00000000 00000000 00000000 00000000  ................
 2002280 aaaa0001 80000001 80004a51 ea505a51  ..........JQ.PZQ
 2002290 c99e0001 80000001 80000001 80005555  ..............UU
 20022a0 aaaa0001 80000001 80003993 c252325f  ..........9..R2_
 20022b0 8a527193 80000001 80000001 80005555  .Rq...........UU
 20022c0 aaaa0001 80000001 80003ba5 c1243119  ..........;..$1.
 20022d0 89247125 80000001 80000001 80005555  .$q%..........UU
 20022e0 aaaa0001 80000001 80007ba5 c1247919  ..........{..$y.
 20022f0 c1247925 80000001 80000001 80005555  .$y%..........UU
 2002300 aaaa0001 80000001 800079bf c2487a49  ..........y..HzI
 2002310 c2487989 80000001 80000001 80005555  .Hy...........UU
 2002320 aaaa0001 80000001 80007a4d c2527b53  ..........zM.R{S
 2002330 c2d67a4f 80000001 80000001 80005555  ..zO..........UU
 2002340 aaaa0001 80000001 800031a5 ca287a31  ..........1..(z1
 2002350 ca2849a5 80000001 80000001 80005555  .(I...........UU
 2002360 aaaa0001 80000001 800073d1 ca1073d1  ..........s...s.
 2002370 ca1073df 80000001 80000001 80005555  ..s...........UU
 2002380 aaaa0001 80000001 80001e39 91401e31  ...........9.@.1
 2002390 91081e71 80000001 80000001 80005555  ...q..........UU
 20023a0 aaaa0001 80000001 800022f9 a2203e21  ..........".. >!
 20023b0 a2202221 80000001 80000001 80005555  . "!..........UU
 20023c0 aaaa0001 80000001 800020f9 a08020f9  .......... ... .
 20023d0 a0803e81 80000001 80000001 80005555  ..>...........UU
 20023e0 aaaa0001 80000001 800022f9 a2202221  ..........".. "!
 20023f0 94200821 80000001 80000001 80005555  . .!..........UU
 2002400 aaaa0001 80000001 80003ef9 a0803ef9  ..........>...>.
 2002410 a0802081 80000001 80000001 80005555  .. ...........UU
 2002420 aaaa0001 80000001 80001ef1 a08820f1  .............. .
 2002430 a0901e89 80000001 80000001 80005555  ..............UU
 2002440 aaaa0001 80000001 80001e71 a0881c89  ...........q....
 2002450 82883c71 80000001 80000001 80005555  ..<q..........UU
 2002460 aaaa0001 80000001 80001ef9 a0201c21  ............. .!
 2002470 82203cf9 80000001 80000001 80005555  . <...........UU
 2002480 aaaa0001 80000001 8000391d a510251d  ..........9...%.
 2002490 a51039dd 80000001 80000001 80005555  ..9...........UU
 20024a0 aaaa0001 80000001 80007189 ca184a09  ..........q...J.
 20024b0 ca08719d 80000001 80000001 80005555  ..q...........UU
 20024c0 aaaa0001 80000001 80007199 ca044a09  ..........q...J.
 20024d0 ca10719d 80000001 80000001 80005555  ..q...........UU
 20024e0 aaaa0001 80000001 80007199 ca044a19  ..........q...J.
 20024f0 ca047199 80000001 80000001 80005555  ..q...........UU
 2002500 aaaa0001 80000001 80007185 ca0c4a15  ..........q...J.
 2002510 ca1c7185 80000001 80000001 80005555  ..q...........UU
 2002520 aaaa0001 80000001 80004993 ea546a59  ..........I..TjY
 2002530 dbd44a53 80000001 80000001 80005555  ..JS..........UU
 2002540 aaaa0001 80000001 80003453 c29a3117  ..........4S..1.
 2002550 89127113 80000001 80000001 80005555  ..q...........UU
 2002560 aaaa0001 80000001 80007bb9 c1247939  ..........{..$y9
 2002570 c1247939 80000001 80000001 80005555  .$y9..........UU
 2002580 aaaa0001 80000001 80003325 c4b447ad  ..........3%..G.
 2002590 c4a434a5 80000001 80000001 80005555  ..4...........UU
 20025a0 aaaa0001 80000001 80003e89 a0d83ea9  ..........>...>.
 20025b0 a0883e89 80000001 80000001 80005555  ..>...........UU
 20025c0 aaaa0001 80000001 80003a5d c252325d  ..........:].R2]
 20025d0 8a52719d 80000001 80000001 80005555  .Rq...........UU
 20025e0 aaaa0001 80000001 800079cf c2107991  ..........y...y.
 20025f0 c0507b8f 80000001 80000001 80005555  .P{...........UU
 2002600 aaaa0001 80000001 80001e71 90801e61  ...........q...a
 2002610 901010e1 80000001 80000001 80005555  ..............UU
 2002620 aaaa0001 80000001 80000e71 90801661  ...........q...a
 2002630 92100ee1 80000001 80000001 80005555  ..............UU
 2002640 aaaa0001 80000001 80001c71 92801c61  ...........q...a
 2002650 941012e1 80000001 80000001 80005555  ..............UU
 2002660 aaaa0001 80000001 80001271 92801261  ...........q...a
 2002670 92100ce1 80000001 80000001 80005555  ..............UU
 2002680 00000000 00000000 00000000 00000000  ................
 2002690 00000000 00000000 00000000 00000000  ................
 20026a0 00000000 08080808 08080800 08080000  ................
 20026b0 00000000 00000000 00000000 00000000  ................
 20026c0 00002222 22220000 00000000 00000000  ..""""..........
 20026d0 00000000 00000000 00000000 00000000  ................
 20026e0 00000000 1212127e 24247e48 48480000  .......~$$~HHH..
 20026f0 00000000 00000000 00000000 00000000  ................
 2002700 00000000 083e4948 380e0949 3e080000  .....>IH8..I>...
 2002710 00000000 00000000 00000000 00000000  ................
 2002720 00000000 314a4a34 08081629 29460000  ....1JJ4...))F..
 2002730 00000000 00000000 00000000 00000000  ................
 2002740 00000000 1c222214 18294542 46390000  .....""..)EBF9..
 2002750 00000000 00000000 00000000 00000000  ................
 2002760 00000808 08080000 00000000 00000000  ................
 2002770 00000000 00000000 00000000 00000000  ................
 2002780 00000004 08081010 10101010 08080400  ................
 2002790 00000000 00000000 00000000 00000000  ................
 20027a0 00000020 10100808 08080808 10102000  ... .......... .
 20027b0 00000000 00000000 00000000 00000000  ................
 20027c0 00000000 00000849 2a1c2a49 08000000  .......I*.*I....
 20027d0 00000000 00000000 00000000 00000000  ................
 20027e0 00000000 00000808 087f0808 08000000  ................
 20027f0 00000000 00000000 00000000 00000000  ................
 2002800 00000000 00000000 00000000 18080810  ................
 2002810 00000000 00000000 00000000 00000000  ................
 2002820 00000000 00000000 003c0000 00000000  .........<......
 2002830 00000000 00000000 00000000 00000000  ................
 2002840 00000000 00000000 00000000 18180000  ................
 2002850 00000000 00000000 00000000 00000000  ................
 2002860 00000000 02020408 08101020 40400000  ........... @@..
 2002870 00000000 00000000 00000000 00000000  ................
 2002880 00000000 18244246 4a526242 24180000  .....$BFJRbB$...
 2002890 00000000 00000000 00000000 00000000  ................
 20028a0 00000000 08182808 08080808 083e0000  ......(......>..
 20028b0 00000000 00000000 00000000 00000000  ................
 20028c0 00000000 3c424202 0c102040 407e0000  ....<BB... @@~..
 20028d0 00000000 00000000 00000000 00000000  ................
 20028e0 00000000 3c424202 1c020242 423c0000  ....<BB....BB<..
 20028f0 00000000 00000000 00000000 00000000  ................
 2002900 00000000 040c1424 44447e04 04040000  .......$DD~.....
 2002910 00000000 00000000 00000000 00000000  ................
 2002920 00000000 7e404040 7c020202 423c0000  ....~@@@|...B<..
 2002930 00000000 00000000 00000000 00000000  ................
 2002940 00000000 1c204040 7c424242 423c0000  ..... @@|BBBB<..
 2002950 00000000 00000000 00000000 00000000  ................
 2002960 00000000 7e020204 04040808 08080000  ....~...........
 2002970 00000000 00000000 00000000 00000000  ................
 2002980 00000000 3c424242 3c424242 423c0000  ....<BBB<BBBB<..
 2002990 00000000 00000000 00000000 00000000  ................
 20029a0 00000000 3c424242 3e020202 04380000  ....<BBB>....8..
 20029b0 00000000 00000000 00000000 00000000  ................
 20029c0 00000000 00001818 00000018 18000000  ................
 20029d0 00000000 00000000 00000000 00000000  ................
 20029e0 00000000 00001818 00000018 08081000  ................
 20029f0 00000000 00000000 00000000 00000000  ................
 2002a00 00000000 00020408 10201008 04020000  ......... ......
 2002a10 00000000 00000000 00000000 00000000  ................
 2002a20 00000000 0000007e 0000007e 00000000  .......~...~....
 2002a30 00000000 00000000 00000000 00000000  ................
 2002a40 00000000 00402010 08040810 20400000  .....@ ..... @..
 2002a50 00000000 00000000 00000000 00000000  ................
 2002a60 00000000 3c424202 04080800 08080000  ....<BB.........
 2002a70 00000000 00000000 00000000 00000000  ................
 2002a80 00000000 1c224a56 5252524e 201e0000  ....."JVRRRN ...
 2002a90 00000000 00000000 00000000 00000000  ................
 2002aa0 00000000 18242442 427e4242 42420000  .....$$BB~BBBB..
 2002ab0 00000000 00000000 00000000 00000000  ................
 2002ac0 00000000 7c424242 7c424242 427c0000  ....|BBB|BBBB|..
 2002ad0 00000000 00000000 00000000 00000000  ................
 2002ae0 00000000 3c424240 40404042 423c0000  ....<BB@@@@BB<..
 2002af0 00000000 00000000 00000000 00000000  ................
 2002b00 00000000 78444242 42424242 44780000  ....xDBBBBBBDx..
 2002b10 00000000 00000000 00000000 00000000  ................
 2002b20 00000000 7e404040 7c404040 407e0000  ....~@@@|@@@@~..
 2002b30 00000000 00000000 00000000 00000000  ................
 2002b40 00000000 7e404040 7c404040 40400000  ....~@@@|@@@@@..
 2002b50 00000000 00000000 00000000 00000000  ................
 2002b60 00000000 3c424240 404e4242 463a0000  ....<BB@@NBBF:..
 2002b70 00000000 00000000 00000000 00000000  ................
 2002b80 00000000 42424242 7e424242 42420000  ....BBBB~BBBBB..
 2002b90 00000000 00000000 00000000 00000000  ................
 2002ba0 00000000 3e080808 08080808 083e0000  ....>........>..
 2002bb0 00000000 00000000 00000000 00000000  ................
 2002bc0 00000000 1f040404 04040444 44380000  ...........DD8..
 2002bd0 00000000 00000000 00000000 00000000  ................
 2002be0 00000000 42444850 60605048 44420000  ....BDHP``PHDB..
 2002bf0 00000000 00000000 00000000 00000000  ................
 2002c00 00000000 40404040 40404040 407e0000  ....@@@@@@@@@~..
 2002c10 00000000 00000000 00000000 00000000  ................
 2002c20 00000000 42426666 5a5a4242 42420000  ....BBffZZBBBB..
 2002c30 00000000 00000000 00000000 00000000  ................
 2002c40 00000000 42626252 524a4a46 46420000  ....BbbRRJJFFB..
 2002c50 00000000 00000000 00000000 00000000  ................
 2002c60 00000000 3c424242 42424242 423c0000  ....<BBBBBBBB<..
 2002c70 00000000 00000000 00000000 00000000  ................
 2002c80 00000000 7c424242 7c404040 40400000  ....|BBB|@@@@@..
 2002c90 00000000 00000000 00000000 00000000  ................
 2002ca0 00000000 3c424242 4242425a 663c0300  ....<BBBBBBZf<..
 2002cb0 00000000 00000000 00000000 00000000  ................
 2002cc0 00000000 7c424242 7c484444 42420000  ....|BBB|HDDBB..
 2002cd0 00000000 00000000 00000000 00000000  ................
 2002ce0 00000000 3c424240 300c0242 423c0000  ....<BB@0..BB<..
 2002cf0 00000000 00000000 00000000 00000000  ................
 2002d00 00000000 7f080808 08080808 08080000  ................
 2002d10 00000000 00000000 00000000 00000000  ................
 2002d20 00000000 42424242 42424242 423c0000  ....BBBBBBBBB<..
 2002d30 00000000 00000000 00000000 00000000  ................
 2002d40 00000000 41414122 22221414 08080000  ....AAA"""......
 2002d50 00000000 00000000 00000000 00000000  ................
 2002d60 00000000 42424242 5a5a6666 42420000  ....BBBBZZffBB..
 2002d70 00000000 00000000 00000000 00000000  ................
 2002d80 00000000 42422424 18182424 42420000  ....BB$$..$$BB..
 2002d90 00000000 00000000 00000000 00000000  ................
 2002da0 00000000 41412222 14080808 08080000  ....AA""........
 2002db0 00000000 00000000 00000000 00000000  ................
 2002dc0 00000000 7e020204 08102040 407e0000  ....~..... @@~..
 2002dd0 00000000 00000000 00000000 00000000  ................
 2002de0 0000000e 08080808 08080808 08080e00  ................
 2002df0 00000000 00000000 00000000 00000000  ................
 2002e00 00000000 40402010 10080804 02020000  ....@@ .........
 2002e10 00000000 00000000 00000000 00000000  ................
 2002e20 00000070 10101010 10101010 10107000  ...p..........p.
 2002e30 00000000 00000000 00000000 00000000  ................
 2002e40 00001824 42000000 00000000 00000000  ...$B...........
 2002e50 00000000 00000000 00000000 00000000  ................
 2002e60 00000000 00000000 00000000 00007f00  ................
 2002e70 00000000 00000000 00000000 00000000  ................
 2002e80 00201008 00000000 00000000 00000000  . ..............
 2002e90 00000000 00000000 00000000 00000000  ................
 2002ea0 00000000 00003c42 023e4242 463a0000  ......<B.>BBF:..
 2002eb0 00000000 00000000 00000000 00000000  ................
 2002ec0 00000040 40405c62 42424242 625c0000  ...@@@\bBBBBb\..
 2002ed0 00000000 00000000 00000000 00000000  ................
 2002ee0 00000000 00003c42 40404040 423c0000  ......<B@@@@B<..
 2002ef0 00000000 00000000 00000000 00000000  ................
 2002f00 00000002 02023a46 42424242 463a0000  ......:FBBBBF:..
 2002f10 00000000 00000000 00000000 00000000  ................
 2002f20 00000000 00003c42 427e4040 423c0000  ......<BB~@@B<..
 2002f30 00000000 00000000 00000000 00000000  ................
 2002f40 0000000c 1010107c 10101010 10100000  .......|........
 2002f50 00000000 00000000 00000000 00000000  ................
 2002f60 00000000 00023a44 44443820 3c42423c  ......:DDD8 <BB<
 2002f70 00000000 00000000 00000000 00000000  ................
 2002f80 00000040 40405c62 42424242 42420000  ...@@@\bBBBBBB..
 2002f90 00000000 00000000 00000000 00000000  ................
 2002fa0 00000008 08001808 08080808 083e0000  .............>..
 2002fb0 00000000 00000000 00000000 00000000  ................
 2002fc0 00000004 04000c04 04040404 04044830  ..............H0
 2002fd0 00000000 00000000 00000000 00000000  ................
 2002fe0 00000040 40404448 50605048 44420000  ...@@@DHP`PHDB..
 2002ff0 00000000 00000000 00000000 00000000  ................
 2003000 00000018 08080808 08080808 083e0000  .............>..
 2003010 00000000 00000000 00000000 00000000  ................
 2003020 00000000 00007649 49494949 49490000  ......vIIIIIII..
 2003030 00000000 00000000 00000000 00000000  ................
 2003040 00000000 00005c62 42424242 42420000  ......\bBBBBBB..
 2003050 00000000 00000000 00000000 00000000  ................
 2003060 00000000 00003c42 42424242 423c0000  ......<BBBBBB<..
 2003070 00000000 00000000 00000000 00000000  ................
 2003080 00000000 00005c62 42424242 625c4040  ......\bBBBBb\@@
 2003090 00000000 00000000 00000000 00000000  ................
 20030a0 00000000 00003a46 42424242 463a0202  ......:FBBBBF:..
 20030b0 00000000 00000000 00000000 00000000  ................
 20030c0 00000000 00005c62 42404040 40400000  ......\bB@@@@@..
 20030d0 00000000 00000000 00000000 00000000  ................
 20030e0 00000000 00003c42 40300c02 423c0000  ......<B@0..B<..
 20030f0 00000000 00000000 00000000 00000000  ................
 2003100 00000000 1010107c 10101010 100c0000  .......|........
 2003110 00000000 00000000 00000000 00000000  ................
 2003120 00000000 00004242 42424242 463a0000  ......BBBBBBF:..
 2003130 00000000 00000000 00000000 00000000  ................
 2003140 00000000 00004242 42242424 18180000  ......BBB$$$....
 2003150 00000000 00000000 00000000 00000000  ................
 2003160 00000000 00004149 49494949 49360000  ......AIIIIII6..
 2003170 00000000 00000000 00000000 00000000  ................
 2003180 00000000 00004242 24181824 42420000  ......BB$..$BB..
 2003190 00000000 00000000 00000000 00000000  ................
 20031a0 00000000 00004242 42424226 1a02023c  ......BBBBB&...<
 20031b0 00000000 00000000 00000000 00000000  ................
 20031c0 00000000 00007e02 04081020 407e0000  ......~.... @~..
 20031d0 00000000 00000000 00000000 00000000  ................
 20031e0 0000000c 10100808 10201008 0810100c  ......... ......
 20031f0 00000000 00000000 00000000 00000000  ................
 2003200 00000808 08080808 08080808 08080808  ................
 2003210 00000000 00000000 00000000 00000000  ................
 2003220 00000030 08081010 08040810 10080830  ...0...........0
 2003230 00000000 00000000 00000000 00000000  ................
 2003240 00000031 49460000 00000000 00000000  ...1IF..........
 2003250 00000000 00000000 00000000 00000000  ................
 2003260 aaaa0001 80000001 800073d1 ca104bd1  ..........s...K.
 2003270 ca1073df 80000001 80000001 80005555  ..s...........UU

Disassembly of section .text:

02000000 <tag_start>:
 2000000:	d6                   	(bad)  
 2000001:	50                   	push   %eax
 2000002:	52                   	push   %edx
 2000003:	e8 00 00 00 00       	call   2000008 <tag_start+0x8>
 2000008:	28 00                	sub    %al,(%eax)
 200000a:	00 00                	add    %al,(%eax)
 200000c:	02 af ad 17 05 00    	add    0x517ad(%edi),%ch

02000010 <.vbe>:
 2000010:	05 00 00 00 14       	add    $0x14000000,%eax
 2000015:	00 00                	add    %al,(%eax)
 2000017:	00 00                	add    %al,(%eax)
 2000019:	04 00                	add    $0x0,%al
 200001b:	00 00                	add    %al,(%eax)
 200001d:	03 00                	add    (%eax),%eax
 200001f:	00 20                	add    %ah,(%eax)
 2000021:	00 00                	add    %al,(%eax)
	...

02000024 <.vbe_e>:
 2000024:	00 00                	add    %al,(%eax)
	...

02000028 <tag_end>:
 2000028:	ff                   	(bad)  
 2000029:	ff                   	(bad)  
 200002a:	ff                   	(bad)  
 200002b:	ff 55 89             	call   *-0x77(%ebp)

0200002c <ata_wait>:
 200002c:	55                   	push   %ebp
 200002d:	89 e5                	mov    %esp,%ebp
 200002f:	83 ec 08             	sub    $0x8,%esp
 2000032:	90                   	nop
 2000033:	8b 45 08             	mov    0x8(%ebp),%eax
 2000036:	83 c0 07             	add    $0x7,%eax
 2000039:	0f b6 00             	movzbl (%eax),%eax
 200003c:	0f b6 c0             	movzbl %al,%eax
 200003f:	83 ec 0c             	sub    $0xc,%esp
 2000042:	50                   	push   %eax
 2000043:	e8 34 07 00 00       	call   200077c <in_port8>
 2000048:	83 c4 10             	add    $0x10,%esp
 200004b:	c0 e8 06             	shr    $0x6,%al
 200004e:	3c 01                	cmp    $0x1,%al
 2000050:	74 e1                	je     2000033 <ata_wait+0x7>
 2000052:	90                   	nop
 2000053:	90                   	nop
 2000054:	c9                   	leave  
 2000055:	c3                   	ret    

02000056 <ata_read_sector>:
 2000056:	55                   	push   %ebp
 2000057:	89 e5                	mov    %esp,%ebp
 2000059:	83 ec 28             	sub    $0x28,%esp
 200005c:	8b 45 0c             	mov    0xc(%ebp),%eax
 200005f:	89 45 e0             	mov    %eax,-0x20(%ebp)
 2000062:	8b 45 10             	mov    0x10(%ebp),%eax
 2000065:	89 45 e4             	mov    %eax,-0x1c(%ebp)
 2000068:	81 7d e4 ff ff 00 00 	cmpl   $0xffff,-0x1c(%ebp)
 200006f:	76 0a                	jbe    200007b <ata_read_sector+0x25>
 2000071:	b8 ff ff ff ff       	mov    $0xffffffff,%eax
 2000076:	e9 2e 02 00 00       	jmp    20002a9 <ata_read_sector+0x253>
 200007b:	83 ec 0c             	sub    $0xc,%esp
 200007e:	ff 75 08             	pushl  0x8(%ebp)
 2000081:	e8 a6 ff ff ff       	call   200002c <ata_wait>
 2000086:	83 c4 10             	add    $0x10,%esp
 2000089:	8b 45 08             	mov    0x8(%ebp),%eax
 200008c:	83 c0 01             	add    $0x1,%eax
 200008f:	0f b6 00             	movzbl (%eax),%eax
 2000092:	0f b6 c0             	movzbl %al,%eax
 2000095:	83 ec 08             	sub    $0x8,%esp
 2000098:	6a 00                	push   $0x0
 200009a:	50                   	push   %eax
 200009b:	e8 1e 07 00 00       	call   20007be <out_port8>
 20000a0:	83 c4 10             	add    $0x10,%esp
 20000a3:	8b 45 08             	mov    0x8(%ebp),%eax
 20000a6:	83 c0 02             	add    $0x2,%eax
 20000a9:	0f b6 00             	movzbl (%eax),%eax
 20000ac:	0f b6 c0             	movzbl %al,%eax
 20000af:	83 ec 08             	sub    $0x8,%esp
 20000b2:	6a 00                	push   $0x0
 20000b4:	50                   	push   %eax
 20000b5:	e8 04 07 00 00       	call   20007be <out_port8>
 20000ba:	83 c4 10             	add    $0x10,%esp
 20000bd:	8b 45 e0             	mov    -0x20(%ebp),%eax
 20000c0:	8b 55 e4             	mov    -0x1c(%ebp),%edx
 20000c3:	0f a4 c2 10          	shld   $0x10,%eax,%edx
 20000c7:	c1 e0 10             	shl    $0x10,%eax
 20000ca:	89 d0                	mov    %edx,%eax
 20000cc:	31 d2                	xor    %edx,%edx
 20000ce:	c1 e8 08             	shr    $0x8,%eax
 20000d1:	0f b6 d0             	movzbl %al,%edx
 20000d4:	8b 45 08             	mov    0x8(%ebp),%eax
 20000d7:	83 c0 03             	add    $0x3,%eax
 20000da:	0f b6 00             	movzbl (%eax),%eax
 20000dd:	0f b6 c0             	movzbl %al,%eax
 20000e0:	83 ec 08             	sub    $0x8,%esp
 20000e3:	52                   	push   %edx
 20000e4:	50                   	push   %eax
 20000e5:	e8 d4 06 00 00       	call   20007be <out_port8>
 20000ea:	83 c4 10             	add    $0x10,%esp
 20000ed:	8b 45 e0             	mov    -0x20(%ebp),%eax
 20000f0:	8b 55 e4             	mov    -0x1c(%ebp),%edx
 20000f3:	0f a4 c2 08          	shld   $0x8,%eax,%edx
 20000f7:	c1 e0 08             	shl    $0x8,%eax
 20000fa:	89 d0                	mov    %edx,%eax
 20000fc:	31 d2                	xor    %edx,%edx
 20000fe:	c1 e8 08             	shr    $0x8,%eax
 2000101:	0f b6 d0             	movzbl %al,%edx
 2000104:	8b 45 08             	mov    0x8(%ebp),%eax
 2000107:	83 c0 04             	add    $0x4,%eax
 200010a:	0f b6 00             	movzbl (%eax),%eax
 200010d:	0f b6 c0             	movzbl %al,%eax
 2000110:	83 ec 08             	sub    $0x8,%esp
 2000113:	52                   	push   %edx
 2000114:	50                   	push   %eax
 2000115:	e8 a4 06 00 00       	call   20007be <out_port8>
 200011a:	83 c4 10             	add    $0x10,%esp
 200011d:	8b 45 e0             	mov    -0x20(%ebp),%eax
 2000120:	8b 55 e4             	mov    -0x1c(%ebp),%edx
 2000123:	89 d0                	mov    %edx,%eax
 2000125:	31 d2                	xor    %edx,%edx
 2000127:	c1 e8 08             	shr    $0x8,%eax
 200012a:	0f b6 d0             	movzbl %al,%edx
 200012d:	8b 45 08             	mov    0x8(%ebp),%eax
 2000130:	83 c0 05             	add    $0x5,%eax
 2000133:	0f b6 00             	movzbl (%eax),%eax
 2000136:	0f b6 c0             	movzbl %al,%eax
 2000139:	83 ec 08             	sub    $0x8,%esp
 200013c:	52                   	push   %edx
 200013d:	50                   	push   %eax
 200013e:	e8 7b 06 00 00       	call   20007be <out_port8>
 2000143:	83 c4 10             	add    $0x10,%esp
 2000146:	8b 45 08             	mov    0x8(%ebp),%eax
 2000149:	83 c0 01             	add    $0x1,%eax
 200014c:	0f b6 00             	movzbl (%eax),%eax
 200014f:	0f b6 c0             	movzbl %al,%eax
 2000152:	83 ec 08             	sub    $0x8,%esp
 2000155:	6a 00                	push   $0x0
 2000157:	50                   	push   %eax
 2000158:	e8 61 06 00 00       	call   20007be <out_port8>
 200015d:	83 c4 10             	add    $0x10,%esp
 2000160:	8b 45 08             	mov    0x8(%ebp),%eax
 2000163:	83 c0 02             	add    $0x2,%eax
 2000166:	0f b6 00             	movzbl (%eax),%eax
 2000169:	0f b6 c0             	movzbl %al,%eax
 200016c:	83 ec 08             	sub    $0x8,%esp
 200016f:	6a 01                	push   $0x1
 2000171:	50                   	push   %eax
 2000172:	e8 47 06 00 00       	call   20007be <out_port8>
 2000177:	83 c4 10             	add    $0x10,%esp
 200017a:	8b 45 e0             	mov    -0x20(%ebp),%eax
 200017d:	0f b6 d0             	movzbl %al,%edx
 2000180:	8b 45 08             	mov    0x8(%ebp),%eax
 2000183:	83 c0 03             	add    $0x3,%eax
 2000186:	0f b6 00             	movzbl (%eax),%eax
 2000189:	0f b6 c0             	movzbl %al,%eax
 200018c:	83 ec 08             	sub    $0x8,%esp
 200018f:	52                   	push   %edx
 2000190:	50                   	push   %eax
 2000191:	e8 28 06 00 00       	call   20007be <out_port8>
 2000196:	83 c4 10             	add    $0x10,%esp
 2000199:	8b 45 e0             	mov    -0x20(%ebp),%eax
 200019c:	8b 55 e4             	mov    -0x1c(%ebp),%edx
 200019f:	89 c2                	mov    %eax,%edx
 20001a1:	b8 00 00 00 00       	mov    $0x0,%eax
 20001a6:	89 d0                	mov    %edx,%eax
 20001a8:	31 d2                	xor    %edx,%edx
 20001aa:	c1 e8 08             	shr    $0x8,%eax
 20001ad:	0f b6 d0             	movzbl %al,%edx
 20001b0:	8b 45 08             	mov    0x8(%ebp),%eax
 20001b3:	83 c0 04             	add    $0x4,%eax
 20001b6:	0f b6 00             	movzbl (%eax),%eax
 20001b9:	0f b6 c0             	movzbl %al,%eax
 20001bc:	83 ec 08             	sub    $0x8,%esp
 20001bf:	52                   	push   %edx
 20001c0:	50                   	push   %eax
 20001c1:	e8 f8 05 00 00       	call   20007be <out_port8>
 20001c6:	83 c4 10             	add    $0x10,%esp
 20001c9:	8b 45 e0             	mov    -0x20(%ebp),%eax
 20001cc:	8b 55 e4             	mov    -0x1c(%ebp),%edx
 20001cf:	0f a4 c2 18          	shld   $0x18,%eax,%edx
 20001d3:	c1 e0 18             	shl    $0x18,%eax
 20001d6:	89 d0                	mov    %edx,%eax
 20001d8:	31 d2                	xor    %edx,%edx
 20001da:	c1 e8 08             	shr    $0x8,%eax
 20001dd:	0f b6 d0             	movzbl %al,%edx
 20001e0:	8b 45 08             	mov    0x8(%ebp),%eax
 20001e3:	83 c0 05             	add    $0x5,%eax
 20001e6:	0f b6 00             	movzbl (%eax),%eax
 20001e9:	0f b6 c0             	movzbl %al,%eax
 20001ec:	83 ec 08             	sub    $0x8,%esp
 20001ef:	52                   	push   %edx
 20001f0:	50                   	push   %eax
 20001f1:	e8 c8 05 00 00       	call   20007be <out_port8>
 20001f6:	83 c4 10             	add    $0x10,%esp
 20001f9:	8b 45 08             	mov    0x8(%ebp),%eax
 20001fc:	83 c0 08             	add    $0x8,%eax
 20001ff:	0f b6 00             	movzbl (%eax),%eax
 2000202:	0f b6 d0             	movzbl %al,%edx
 2000205:	8b 45 08             	mov    0x8(%ebp),%eax
 2000208:	83 c0 06             	add    $0x6,%eax
 200020b:	0f b6 00             	movzbl (%eax),%eax
 200020e:	0f b6 c0             	movzbl %al,%eax
 2000211:	83 ec 08             	sub    $0x8,%esp
 2000214:	52                   	push   %edx
 2000215:	50                   	push   %eax
 2000216:	e8 a3 05 00 00       	call   20007be <out_port8>
 200021b:	83 c4 10             	add    $0x10,%esp
 200021e:	83 ec 0c             	sub    $0xc,%esp
 2000221:	ff 75 08             	pushl  0x8(%ebp)
 2000224:	e8 03 fe ff ff       	call   200002c <ata_wait>
 2000229:	83 c4 10             	add    $0x10,%esp
 200022c:	8b 45 08             	mov    0x8(%ebp),%eax
 200022f:	83 c0 07             	add    $0x7,%eax
 2000232:	0f b6 00             	movzbl (%eax),%eax
 2000235:	0f b6 c0             	movzbl %al,%eax
 2000238:	83 ec 08             	sub    $0x8,%esp
 200023b:	6a 24                	push   $0x24
 200023d:	50                   	push   %eax
 200023e:	e8 7b 05 00 00       	call   20007be <out_port8>
 2000243:	83 c4 10             	add    $0x10,%esp
 2000246:	83 ec 0c             	sub    $0xc,%esp
 2000249:	ff 75 08             	pushl  0x8(%ebp)
 200024c:	e8 db fd ff ff       	call   200002c <ata_wait>
 2000251:	83 c4 10             	add    $0x10,%esp
 2000254:	8b 45 14             	mov    0x14(%ebp),%eax
 2000257:	89 45 f4             	mov    %eax,-0xc(%ebp)
 200025a:	eb 22                	jmp    200027e <ata_read_sector+0x228>
 200025c:	8b 45 08             	mov    0x8(%ebp),%eax
 200025f:	83 c0 01             	add    $0x1,%eax
 2000262:	0f b6 00             	movzbl (%eax),%eax
 2000265:	0f b6 c0             	movzbl %al,%eax
 2000268:	83 ec 0c             	sub    $0xc,%esp
 200026b:	50                   	push   %eax
 200026c:	e8 e6 04 00 00       	call   2000757 <in_port16>
 2000271:	83 c4 10             	add    $0x10,%esp
 2000274:	8b 55 f4             	mov    -0xc(%ebp),%edx
 2000277:	66 89 02             	mov    %ax,(%edx)
 200027a:	83 45 f4 02          	addl   $0x2,-0xc(%ebp)
 200027e:	8b 45 08             	mov    0x8(%ebp),%eax
 2000281:	83 c0 07             	add    $0x7,%eax
 2000284:	0f b6 00             	movzbl (%eax),%eax
 2000287:	0f b6 c0             	movzbl %al,%eax
 200028a:	83 ec 0c             	sub    $0xc,%esp
 200028d:	50                   	push   %eax
 200028e:	e8 e9 04 00 00       	call   200077c <in_port8>
 2000293:	83 c4 10             	add    $0x10,%esp
 2000296:	0f b6 c0             	movzbl %al,%eax
 2000299:	c1 e0 04             	shl    $0x4,%eax
 200029c:	c1 f8 07             	sar    $0x7,%eax
 200029f:	83 f8 01             	cmp    $0x1,%eax
 20002a2:	74 b8                	je     200025c <ata_read_sector+0x206>
 20002a4:	b8 00 00 00 00       	mov    $0x0,%eax
 20002a9:	c9                   	leave  
 20002aa:	c3                   	ret    

020002ab <ata_write_sector>:
 20002ab:	55                   	push   %ebp
 20002ac:	89 e5                	mov    %esp,%ebp
 20002ae:	83 ec 28             	sub    $0x28,%esp
 20002b1:	8b 45 10             	mov    0x10(%ebp),%eax
 20002b4:	89 45 e0             	mov    %eax,-0x20(%ebp)
 20002b7:	8b 45 14             	mov    0x14(%ebp),%eax
 20002ba:	89 45 e4             	mov    %eax,-0x1c(%ebp)
 20002bd:	81 7d e4 ff ff 00 00 	cmpl   $0xffff,-0x1c(%ebp)
 20002c4:	76 0a                	jbe    20002d0 <ata_write_sector+0x25>
 20002c6:	b8 ff ff ff ff       	mov    $0xffffffff,%eax
 20002cb:	e9 32 02 00 00       	jmp    2000502 <ata_write_sector+0x257>
 20002d0:	83 ec 0c             	sub    $0xc,%esp
 20002d3:	ff 75 08             	pushl  0x8(%ebp)
 20002d6:	e8 51 fd ff ff       	call   200002c <ata_wait>
 20002db:	83 c4 10             	add    $0x10,%esp
 20002de:	8b 45 08             	mov    0x8(%ebp),%eax
 20002e1:	83 c0 01             	add    $0x1,%eax
 20002e4:	0f b6 00             	movzbl (%eax),%eax
 20002e7:	0f b6 c0             	movzbl %al,%eax
 20002ea:	83 ec 08             	sub    $0x8,%esp
 20002ed:	6a 00                	push   $0x0
 20002ef:	50                   	push   %eax
 20002f0:	e8 c9 04 00 00       	call   20007be <out_port8>
 20002f5:	83 c4 10             	add    $0x10,%esp
 20002f8:	8b 45 08             	mov    0x8(%ebp),%eax
 20002fb:	83 c0 02             	add    $0x2,%eax
 20002fe:	0f b6 00             	movzbl (%eax),%eax
 2000301:	0f b6 c0             	movzbl %al,%eax
 2000304:	83 ec 08             	sub    $0x8,%esp
 2000307:	6a 00                	push   $0x0
 2000309:	50                   	push   %eax
 200030a:	e8 af 04 00 00       	call   20007be <out_port8>
 200030f:	83 c4 10             	add    $0x10,%esp
 2000312:	8b 45 e0             	mov    -0x20(%ebp),%eax
 2000315:	8b 55 e4             	mov    -0x1c(%ebp),%edx
 2000318:	0f a4 c2 10          	shld   $0x10,%eax,%edx
 200031c:	c1 e0 10             	shl    $0x10,%eax
 200031f:	89 d0                	mov    %edx,%eax
 2000321:	31 d2                	xor    %edx,%edx
 2000323:	c1 e8 08             	shr    $0x8,%eax
 2000326:	0f b6 d0             	movzbl %al,%edx
 2000329:	8b 45 08             	mov    0x8(%ebp),%eax
 200032c:	83 c0 03             	add    $0x3,%eax
 200032f:	0f b6 00             	movzbl (%eax),%eax
 2000332:	0f b6 c0             	movzbl %al,%eax
 2000335:	83 ec 08             	sub    $0x8,%esp
 2000338:	52                   	push   %edx
 2000339:	50                   	push   %eax
 200033a:	e8 7f 04 00 00       	call   20007be <out_port8>
 200033f:	83 c4 10             	add    $0x10,%esp
 2000342:	8b 45 e0             	mov    -0x20(%ebp),%eax
 2000345:	8b 55 e4             	mov    -0x1c(%ebp),%edx
 2000348:	0f a4 c2 08          	shld   $0x8,%eax,%edx
 200034c:	c1 e0 08             	shl    $0x8,%eax
 200034f:	89 d0                	mov    %edx,%eax
 2000351:	31 d2                	xor    %edx,%edx
 2000353:	c1 e8 08             	shr    $0x8,%eax
 2000356:	0f b6 d0             	movzbl %al,%edx
 2000359:	8b 45 08             	mov    0x8(%ebp),%eax
 200035c:	83 c0 04             	add    $0x4,%eax
 200035f:	0f b6 00             	movzbl (%eax),%eax
 2000362:	0f b6 c0             	movzbl %al,%eax
 2000365:	83 ec 08             	sub    $0x8,%esp
 2000368:	52                   	push   %edx
 2000369:	50                   	push   %eax
 200036a:	e8 4f 04 00 00       	call   20007be <out_port8>
 200036f:	83 c4 10             	add    $0x10,%esp
 2000372:	8b 45 e0             	mov    -0x20(%ebp),%eax
 2000375:	8b 55 e4             	mov    -0x1c(%ebp),%edx
 2000378:	89 d0                	mov    %edx,%eax
 200037a:	31 d2                	xor    %edx,%edx
 200037c:	c1 e8 08             	shr    $0x8,%eax
 200037f:	0f b6 d0             	movzbl %al,%edx
 2000382:	8b 45 08             	mov    0x8(%ebp),%eax
 2000385:	83 c0 05             	add    $0x5,%eax
 2000388:	0f b6 00             	movzbl (%eax),%eax
 200038b:	0f b6 c0             	movzbl %al,%eax
 200038e:	83 ec 08             	sub    $0x8,%esp
 2000391:	52                   	push   %edx
 2000392:	50                   	push   %eax
 2000393:	e8 26 04 00 00       	call   20007be <out_port8>
 2000398:	83 c4 10             	add    $0x10,%esp
 200039b:	8b 45 08             	mov    0x8(%ebp),%eax
 200039e:	83 c0 01             	add    $0x1,%eax
 20003a1:	0f b6 00             	movzbl (%eax),%eax
 20003a4:	0f b6 c0             	movzbl %al,%eax
 20003a7:	83 ec 08             	sub    $0x8,%esp
 20003aa:	6a 00                	push   $0x0
 20003ac:	50                   	push   %eax
 20003ad:	e8 0c 04 00 00       	call   20007be <out_port8>
 20003b2:	83 c4 10             	add    $0x10,%esp
 20003b5:	8b 45 08             	mov    0x8(%ebp),%eax
 20003b8:	83 c0 02             	add    $0x2,%eax
 20003bb:	0f b6 00             	movzbl (%eax),%eax
 20003be:	0f b6 c0             	movzbl %al,%eax
 20003c1:	83 ec 08             	sub    $0x8,%esp
 20003c4:	6a 01                	push   $0x1
 20003c6:	50                   	push   %eax
 20003c7:	e8 f2 03 00 00       	call   20007be <out_port8>
 20003cc:	83 c4 10             	add    $0x10,%esp
 20003cf:	8b 45 e0             	mov    -0x20(%ebp),%eax
 20003d2:	0f b6 d0             	movzbl %al,%edx
 20003d5:	8b 45 08             	mov    0x8(%ebp),%eax
 20003d8:	83 c0 03             	add    $0x3,%eax
 20003db:	0f b6 00             	movzbl (%eax),%eax
 20003de:	0f b6 c0             	movzbl %al,%eax
 20003e1:	83 ec 08             	sub    $0x8,%esp
 20003e4:	52                   	push   %edx
 20003e5:	50                   	push   %eax
 20003e6:	e8 d3 03 00 00       	call   20007be <out_port8>
 20003eb:	83 c4 10             	add    $0x10,%esp
 20003ee:	8b 45 e0             	mov    -0x20(%ebp),%eax
 20003f1:	8b 55 e4             	mov    -0x1c(%ebp),%edx
 20003f4:	89 c2                	mov    %eax,%edx
 20003f6:	b8 00 00 00 00       	mov    $0x0,%eax
 20003fb:	89 d0                	mov    %edx,%eax
 20003fd:	31 d2                	xor    %edx,%edx
 20003ff:	c1 e8 08             	shr    $0x8,%eax
 2000402:	0f b6 d0             	movzbl %al,%edx
 2000405:	8b 45 08             	mov    0x8(%ebp),%eax
 2000408:	83 c0 04             	add    $0x4,%eax
 200040b:	0f b6 00             	movzbl (%eax),%eax
 200040e:	0f b6 c0             	movzbl %al,%eax
 2000411:	83 ec 08             	sub    $0x8,%esp
 2000414:	52                   	push   %edx
 2000415:	50                   	push   %eax
 2000416:	e8 a3 03 00 00       	call   20007be <out_port8>
 200041b:	83 c4 10             	add    $0x10,%esp
 200041e:	8b 45 e0             	mov    -0x20(%ebp),%eax
 2000421:	8b 55 e4             	mov    -0x1c(%ebp),%edx
 2000424:	0f a4 c2 18          	shld   $0x18,%eax,%edx
 2000428:	c1 e0 18             	shl    $0x18,%eax
 200042b:	89 d0                	mov    %edx,%eax
 200042d:	31 d2                	xor    %edx,%edx
 200042f:	c1 e8 08             	shr    $0x8,%eax
 2000432:	0f b6 d0             	movzbl %al,%edx
 2000435:	8b 45 08             	mov    0x8(%ebp),%eax
 2000438:	83 c0 05             	add    $0x5,%eax
 200043b:	0f b6 00             	movzbl (%eax),%eax
 200043e:	0f b6 c0             	movzbl %al,%eax
 2000441:	83 ec 08             	sub    $0x8,%esp
 2000444:	52                   	push   %edx
 2000445:	50                   	push   %eax
 2000446:	e8 73 03 00 00       	call   20007be <out_port8>
 200044b:	83 c4 10             	add    $0x10,%esp
 200044e:	8b 45 08             	mov    0x8(%ebp),%eax
 2000451:	83 c0 08             	add    $0x8,%eax
 2000454:	0f b6 00             	movzbl (%eax),%eax
 2000457:	0f b6 d0             	movzbl %al,%edx
 200045a:	8b 45 08             	mov    0x8(%ebp),%eax
 200045d:	83 c0 06             	add    $0x6,%eax
 2000460:	0f b6 00             	movzbl (%eax),%eax
 2000463:	0f b6 c0             	movzbl %al,%eax
 2000466:	83 ec 08             	sub    $0x8,%esp
 2000469:	52                   	push   %edx
 200046a:	50                   	push   %eax
 200046b:	e8 4e 03 00 00       	call   20007be <out_port8>
 2000470:	83 c4 10             	add    $0x10,%esp
 2000473:	83 ec 0c             	sub    $0xc,%esp
 2000476:	ff 75 08             	pushl  0x8(%ebp)
 2000479:	e8 ae fb ff ff       	call   200002c <ata_wait>
 200047e:	83 c4 10             	add    $0x10,%esp
 2000481:	8b 45 08             	mov    0x8(%ebp),%eax
 2000484:	83 c0 07             	add    $0x7,%eax
 2000487:	0f b6 00             	movzbl (%eax),%eax
 200048a:	0f b6 c0             	movzbl %al,%eax
 200048d:	83 ec 08             	sub    $0x8,%esp
 2000490:	6a 34                	push   $0x34
 2000492:	50                   	push   %eax
 2000493:	e8 26 03 00 00       	call   20007be <out_port8>
 2000498:	83 c4 10             	add    $0x10,%esp
 200049b:	83 ec 0c             	sub    $0xc,%esp
 200049e:	ff 75 08             	pushl  0x8(%ebp)
 20004a1:	e8 86 fb ff ff       	call   200002c <ata_wait>
 20004a6:	83 c4 10             	add    $0x10,%esp
 20004a9:	8b 45 0c             	mov    0xc(%ebp),%eax
 20004ac:	89 45 f4             	mov    %eax,-0xc(%ebp)
 20004af:	eb 26                	jmp    20004d7 <ata_write_sector+0x22c>
 20004b1:	8b 45 f4             	mov    -0xc(%ebp),%eax
 20004b4:	0f b7 00             	movzwl (%eax),%eax
 20004b7:	0f b7 d0             	movzwl %ax,%edx
 20004ba:	8b 45 08             	mov    0x8(%ebp),%eax
 20004bd:	83 c0 01             	add    $0x1,%eax
 20004c0:	0f b6 00             	movzbl (%eax),%eax
 20004c3:	0f b6 c0             	movzbl %al,%eax
 20004c6:	83 ec 08             	sub    $0x8,%esp
 20004c9:	52                   	push   %edx
 20004ca:	50                   	push   %eax
 20004cb:	e8 cd 02 00 00       	call   200079d <out_port16>
 20004d0:	83 c4 10             	add    $0x10,%esp
 20004d3:	83 45 f4 02          	addl   $0x2,-0xc(%ebp)
 20004d7:	8b 45 08             	mov    0x8(%ebp),%eax
 20004da:	83 c0 07             	add    $0x7,%eax
 20004dd:	0f b6 00             	movzbl (%eax),%eax
 20004e0:	0f b6 c0             	movzbl %al,%eax
 20004e3:	83 ec 0c             	sub    $0xc,%esp
 20004e6:	50                   	push   %eax
 20004e7:	e8 90 02 00 00       	call   200077c <in_port8>
 20004ec:	83 c4 10             	add    $0x10,%esp
 20004ef:	0f b6 c0             	movzbl %al,%eax
 20004f2:	c1 e0 04             	shl    $0x4,%eax
 20004f5:	c1 f8 07             	sar    $0x7,%eax
 20004f8:	83 f8 01             	cmp    $0x1,%eax
 20004fb:	74 b4                	je     20004b1 <ata_write_sector+0x206>
 20004fd:	b8 00 00 00 00       	mov    $0x0,%eax
 2000502:	c9                   	leave  
 2000503:	c3                   	ret    

02000504 <get_reg_cs>:
 2000504:	55                   	push   %ebp
 2000505:	89 e5                	mov    %esp,%ebp
 2000507:	83 ec 10             	sub    $0x10,%esp
 200050a:	66 8c c8             	mov    %cs,%ax
 200050d:	66 89 45 fe          	mov    %ax,-0x2(%ebp)
 2000511:	0f b7 45 fe          	movzwl -0x2(%ebp),%eax
 2000515:	c9                   	leave  
 2000516:	c3                   	ret    

02000517 <void_handle>:
 2000517:	55                   	push   %ebp
 2000518:	89 e5                	mov    %esp,%ebp
 200051a:	83 ec 08             	sub    $0x8,%esp
 200051d:	83 ec 0c             	sub    $0xc,%esp
 2000520:	6a 00                	push   $0x0
 2000522:	68 ff ff ff 00       	push   $0xffffff
 2000527:	68 32 1e 00 02       	push   $0x2001e32
 200052c:	6a 11                	push   $0x11
 200052e:	6a 00                	push   $0x0
 2000530:	e8 1a 17 00 00       	call   2001c4f <kputstr>
 2000535:	83 c4 20             	add    $0x20,%esp
 2000538:	0f b7 05 80 32 00 02 	movzwl 0x2003280,%eax
 200053f:	0f b7 c0             	movzwl %ax,%eax
 2000542:	83 ec 0c             	sub    $0xc,%esp
 2000545:	6a 00                	push   $0x0
 2000547:	68 ff ff ff 00       	push   $0xffffff
 200054c:	50                   	push   %eax
 200054d:	6a 10                	push   $0x10
 200054f:	6a 00                	push   $0x0
 2000551:	e8 5d 17 00 00       	call   2001cb3 <kputnum>
 2000556:	83 c4 20             	add    $0x20,%esp
 2000559:	0f b7 05 80 32 00 02 	movzwl 0x2003280,%eax
 2000560:	83 c0 01             	add    $0x1,%eax
 2000563:	66 a3 80 32 00 02    	mov    %ax,0x2003280
 2000569:	83 ec 08             	sub    $0x8,%esp
 200056c:	6a 20                	push   $0x20
 200056e:	6a 20                	push   $0x20
 2000570:	e8 49 02 00 00       	call   20007be <out_port8>
 2000575:	83 c4 10             	add    $0x10,%esp
 2000578:	90                   	nop
 2000579:	c9                   	leave  
 200057a:	c3                   	ret    

0200057b <keyborad_handle>:
 200057b:	55                   	push   %ebp
 200057c:	89 e5                	mov    %esp,%ebp
 200057e:	53                   	push   %ebx
 200057f:	83 ec 04             	sub    $0x4,%esp
 2000582:	8b 1d 60 22 00 02    	mov    0x2002260,%ebx
 2000588:	83 ec 0c             	sub    $0xc,%esp
 200058b:	6a 60                	push   $0x60
 200058d:	e8 ea 01 00 00       	call   200077c <in_port8>
 2000592:	83 c4 10             	add    $0x10,%esp
 2000595:	88 03                	mov    %al,(%ebx)
 2000597:	a1 60 22 00 02       	mov    0x2002260,%eax
 200059c:	83 c0 01             	add    $0x1,%eax
 200059f:	a3 60 22 00 02       	mov    %eax,0x2002260
 20005a4:	83 ec 0c             	sub    $0xc,%esp
 20005a7:	6a 00                	push   $0x0
 20005a9:	68 ff ff ff 00       	push   $0xffffff
 20005ae:	68 3d 1e 00 02       	push   $0x2001e3d
 20005b3:	6a 0f                	push   $0xf
 20005b5:	6a 00                	push   $0x0
 20005b7:	e8 93 16 00 00       	call   2001c4f <kputstr>
 20005bc:	83 c4 20             	add    $0x20,%esp
 20005bf:	0f b7 05 80 32 00 02 	movzwl 0x2003280,%eax
 20005c6:	0f b7 c0             	movzwl %ax,%eax
 20005c9:	83 ec 0c             	sub    $0xc,%esp
 20005cc:	6a 00                	push   $0x0
 20005ce:	68 ff ff ff 00       	push   $0xffffff
 20005d3:	50                   	push   %eax
 20005d4:	6a 10                	push   $0x10
 20005d6:	6a 00                	push   $0x0
 20005d8:	e8 d6 16 00 00       	call   2001cb3 <kputnum>
 20005dd:	83 c4 20             	add    $0x20,%esp
 20005e0:	0f b7 05 80 32 00 02 	movzwl 0x2003280,%eax
 20005e7:	83 c0 01             	add    $0x1,%eax
 20005ea:	66 a3 80 32 00 02    	mov    %ax,0x2003280
 20005f0:	83 ec 08             	sub    $0x8,%esp
 20005f3:	6a 20                	push   $0x20
 20005f5:	6a 20                	push   $0x20
 20005f7:	e8 c2 01 00 00       	call   20007be <out_port8>
 20005fc:	83 c4 10             	add    $0x10,%esp
 20005ff:	90                   	nop
 2000600:	8b 5d fc             	mov    -0x4(%ebp),%ebx
 2000603:	c9                   	leave  
 2000604:	c3                   	ret    

02000605 <init_interrupt>:
 2000605:	55                   	push   %ebp
 2000606:	89 e5                	mov    %esp,%ebp
 2000608:	83 ec 18             	sub    $0x18,%esp
 200060b:	83 ec 0c             	sub    $0xc,%esp
 200060e:	6a 00                	push   $0x0
 2000610:	68 ff ff ff 00       	push   $0xffffff
 2000615:	68 50 1e 00 02       	push   $0x2001e50
 200061a:	6a 09                	push   $0x9
 200061c:	6a 00                	push   $0x0
 200061e:	e8 2c 16 00 00       	call   2001c4f <kputstr>
 2000623:	83 c4 20             	add    $0x20,%esp
 2000626:	c7 05 a0 34 00 02 51 	movl   $0x2000b51,0x20034a0
 200062d:	0b 00 02 
 2000630:	c7 45 f4 00 00 00 00 	movl   $0x0,-0xc(%ebp)
 2000637:	eb 17                	jmp    2000650 <init_interrupt+0x4b>
 2000639:	83 ec 08             	sub    $0x8,%esp
 200063c:	68 17 05 00 02       	push   $0x2000517
 2000641:	ff 75 f4             	pushl  -0xc(%ebp)
 2000644:	e8 c8 00 00 00       	call   2000711 <set_intr_gate>
 2000649:	83 c4 10             	add    $0x10,%esp
 200064c:	83 45 f4 01          	addl   $0x1,-0xc(%ebp)
 2000650:	83 7d f4 1f          	cmpl   $0x1f,-0xc(%ebp)
 2000654:	76 e3                	jbe    2000639 <init_interrupt+0x34>
 2000656:	83 ec 08             	sub    $0x8,%esp
 2000659:	68 7b 05 00 02       	push   $0x200057b
 200065e:	6a 20                	push   $0x20
 2000660:	e8 ac 00 00 00       	call   2000711 <set_intr_gate>
 2000665:	83 c4 10             	add    $0x10,%esp
 2000668:	83 ec 08             	sub    $0x8,%esp
 200066b:	6a 11                	push   $0x11
 200066d:	6a 20                	push   $0x20
 200066f:	e8 4a 01 00 00       	call   20007be <out_port8>
 2000674:	83 c4 10             	add    $0x10,%esp
 2000677:	83 ec 08             	sub    $0x8,%esp
 200067a:	6a 20                	push   $0x20
 200067c:	6a 21                	push   $0x21
 200067e:	e8 3b 01 00 00       	call   20007be <out_port8>
 2000683:	83 c4 10             	add    $0x10,%esp
 2000686:	83 ec 08             	sub    $0x8,%esp
 2000689:	6a 04                	push   $0x4
 200068b:	6a 21                	push   $0x21
 200068d:	e8 2c 01 00 00       	call   20007be <out_port8>
 2000692:	83 c4 10             	add    $0x10,%esp
 2000695:	83 ec 08             	sub    $0x8,%esp
 2000698:	6a 01                	push   $0x1
 200069a:	6a 21                	push   $0x21
 200069c:	e8 1d 01 00 00       	call   20007be <out_port8>
 20006a1:	83 c4 10             	add    $0x10,%esp
 20006a4:	83 ec 08             	sub    $0x8,%esp
 20006a7:	6a 11                	push   $0x11
 20006a9:	68 a0 00 00 00       	push   $0xa0
 20006ae:	e8 0b 01 00 00       	call   20007be <out_port8>
 20006b3:	83 c4 10             	add    $0x10,%esp
 20006b6:	83 ec 08             	sub    $0x8,%esp
 20006b9:	6a 28                	push   $0x28
 20006bb:	68 a1 00 00 00       	push   $0xa1
 20006c0:	e8 f9 00 00 00       	call   20007be <out_port8>
 20006c5:	83 c4 10             	add    $0x10,%esp
 20006c8:	83 ec 08             	sub    $0x8,%esp
 20006cb:	6a 02                	push   $0x2
 20006cd:	68 a1 00 00 00       	push   $0xa1
 20006d2:	e8 e7 00 00 00       	call   20007be <out_port8>
 20006d7:	83 c4 10             	add    $0x10,%esp
 20006da:	83 ec 08             	sub    $0x8,%esp
 20006dd:	6a 01                	push   $0x1
 20006df:	68 a1 00 00 00       	push   $0xa1
 20006e4:	e8 d5 00 00 00       	call   20007be <out_port8>
 20006e9:	83 c4 10             	add    $0x10,%esp
 20006ec:	83 ec 08             	sub    $0x8,%esp
 20006ef:	6a 00                	push   $0x0
 20006f1:	6a 21                	push   $0x21
 20006f3:	e8 c6 00 00 00       	call   20007be <out_port8>
 20006f8:	83 c4 10             	add    $0x10,%esp
 20006fb:	83 ec 08             	sub    $0x8,%esp
 20006fe:	6a 00                	push   $0x0
 2000700:	68 a1 00 00 00       	push   $0xa1
 2000705:	e8 b4 00 00 00       	call   20007be <out_port8>
 200070a:	83 c4 10             	add    $0x10,%esp
 200070d:	fb                   	sti    
 200070e:	90                   	nop
 200070f:	c9                   	leave  
 2000710:	c3                   	ret    

02000711 <set_intr_gate>:
 2000711:	55                   	push   %ebp
 2000712:	89 e5                	mov    %esp,%ebp
 2000714:	83 ec 10             	sub    $0x10,%esp
 2000717:	a1 a0 34 00 02       	mov    0x20034a0,%eax
 200071c:	8b 55 08             	mov    0x8(%ebp),%edx
 200071f:	c1 e2 03             	shl    $0x3,%edx
 2000722:	01 d0                	add    %edx,%eax
 2000724:	89 45 fc             	mov    %eax,-0x4(%ebp)
 2000727:	8b 45 0c             	mov    0xc(%ebp),%eax
 200072a:	89 c2                	mov    %eax,%edx
 200072c:	8b 45 fc             	mov    -0x4(%ebp),%eax
 200072f:	66 89 10             	mov    %dx,(%eax)
 2000732:	8b 45 0c             	mov    0xc(%ebp),%eax
 2000735:	c1 e8 10             	shr    $0x10,%eax
 2000738:	89 c2                	mov    %eax,%edx
 200073a:	8b 45 fc             	mov    -0x4(%ebp),%eax
 200073d:	66 89 50 06          	mov    %dx,0x6(%eax)
 2000741:	e8 be fd ff ff       	call   2000504 <get_reg_cs>
 2000746:	8b 55 fc             	mov    -0x4(%ebp),%edx
 2000749:	66 89 42 02          	mov    %ax,0x2(%edx)
 200074d:	8b 45 fc             	mov    -0x4(%ebp),%eax
 2000750:	c6 40 05 8e          	movb   $0x8e,0x5(%eax)
 2000754:	90                   	nop
 2000755:	c9                   	leave  
 2000756:	c3                   	ret    

02000757 <in_port16>:
 2000757:	55                   	push   %ebp
 2000758:	89 e5                	mov    %esp,%ebp
 200075a:	83 ec 14             	sub    $0x14,%esp
 200075d:	8b 45 08             	mov    0x8(%ebp),%eax
 2000760:	66 89 45 ec          	mov    %ax,-0x14(%ebp)
 2000764:	66 c7 45 fe 00 00    	movw   $0x0,-0x2(%ebp)
 200076a:	0f b7 45 ec          	movzwl -0x14(%ebp),%eax
 200076e:	89 c2                	mov    %eax,%edx
 2000770:	66 ed                	in     (%dx),%ax
 2000772:	66 89 45 fe          	mov    %ax,-0x2(%ebp)
 2000776:	0f b7 45 fe          	movzwl -0x2(%ebp),%eax
 200077a:	c9                   	leave  
 200077b:	c3                   	ret    

0200077c <in_port8>:
 200077c:	55                   	push   %ebp
 200077d:	89 e5                	mov    %esp,%ebp
 200077f:	83 ec 14             	sub    $0x14,%esp
 2000782:	8b 45 08             	mov    0x8(%ebp),%eax
 2000785:	66 89 45 ec          	mov    %ax,-0x14(%ebp)
 2000789:	c6 45 ff 00          	movb   $0x0,-0x1(%ebp)
 200078d:	0f b7 45 ec          	movzwl -0x14(%ebp),%eax
 2000791:	89 c2                	mov    %eax,%edx
 2000793:	ec                   	in     (%dx),%al
 2000794:	88 45 ff             	mov    %al,-0x1(%ebp)
 2000797:	0f b6 45 ff          	movzbl -0x1(%ebp),%eax
 200079b:	c9                   	leave  
 200079c:	c3                   	ret    

0200079d <out_port16>:
 200079d:	55                   	push   %ebp
 200079e:	89 e5                	mov    %esp,%ebp
 20007a0:	83 ec 08             	sub    $0x8,%esp
 20007a3:	8b 55 08             	mov    0x8(%ebp),%edx
 20007a6:	8b 45 0c             	mov    0xc(%ebp),%eax
 20007a9:	66 89 55 fc          	mov    %dx,-0x4(%ebp)
 20007ad:	66 89 45 f8          	mov    %ax,-0x8(%ebp)
 20007b1:	0f b7 55 fc          	movzwl -0x4(%ebp),%edx
 20007b5:	0f b7 45 f8          	movzwl -0x8(%ebp),%eax
 20007b9:	66 ef                	out    %ax,(%dx)
 20007bb:	90                   	nop
 20007bc:	c9                   	leave  
 20007bd:	c3                   	ret    

020007be <out_port8>:
 20007be:	55                   	push   %ebp
 20007bf:	89 e5                	mov    %esp,%ebp
 20007c1:	83 ec 08             	sub    $0x8,%esp
 20007c4:	8b 45 08             	mov    0x8(%ebp),%eax
 20007c7:	8b 55 0c             	mov    0xc(%ebp),%edx
 20007ca:	66 89 45 fc          	mov    %ax,-0x4(%ebp)
 20007ce:	89 d0                	mov    %edx,%eax
 20007d0:	88 45 f8             	mov    %al,-0x8(%ebp)
 20007d3:	0f b7 55 fc          	movzwl -0x4(%ebp),%edx
 20007d7:	0f b6 45 f8          	movzbl -0x8(%ebp),%eax
 20007db:	ee                   	out    %al,(%dx)
 20007dc:	90                   	nop
 20007dd:	c9                   	leave  
 20007de:	c3                   	ret    

020007df <get_reg_eax>:
 20007df:	55                   	push   %ebp
 20007e0:	89 e5                	mov    %esp,%ebp
 20007e2:	83 ec 10             	sub    $0x10,%esp
 20007e5:	90                   	nop
 20007e6:	89 45 fc             	mov    %eax,-0x4(%ebp)
 20007e9:	8b 45 fc             	mov    -0x4(%ebp),%eax
 20007ec:	c9                   	leave  
 20007ed:	c3                   	ret    

020007ee <get_reg_ebx>:
 20007ee:	55                   	push   %ebp
 20007ef:	89 e5                	mov    %esp,%ebp
 20007f1:	53                   	push   %ebx
 20007f2:	83 ec 10             	sub    $0x10,%esp
 20007f5:	90                   	nop
 20007f6:	89 d8                	mov    %ebx,%eax
 20007f8:	89 45 f8             	mov    %eax,-0x8(%ebp)
 20007fb:	8b 45 f8             	mov    -0x8(%ebp),%eax
 20007fe:	83 c4 10             	add    $0x10,%esp
 2000801:	5b                   	pop    %ebx
 2000802:	5d                   	pop    %ebp
 2000803:	c3                   	ret    

02000804 <get_reg_ecx>:
 2000804:	55                   	push   %ebp
 2000805:	89 e5                	mov    %esp,%ebp
 2000807:	83 ec 10             	sub    $0x10,%esp
 200080a:	90                   	nop
 200080b:	89 c8                	mov    %ecx,%eax
 200080d:	89 45 fc             	mov    %eax,-0x4(%ebp)
 2000810:	8b 45 fc             	mov    -0x4(%ebp),%eax
 2000813:	c9                   	leave  
 2000814:	c3                   	ret    

02000815 <get_reg_edx>:
 2000815:	55                   	push   %ebp
 2000816:	89 e5                	mov    %esp,%ebp
 2000818:	83 ec 10             	sub    $0x10,%esp
 200081b:	90                   	nop
 200081c:	89 d0                	mov    %edx,%eax
 200081e:	89 45 fc             	mov    %eax,-0x4(%ebp)
 2000821:	8b 45 fc             	mov    -0x4(%ebp),%eax
 2000824:	c9                   	leave  
 2000825:	c3                   	ret    

02000826 <get_reg_esi>:
 2000826:	55                   	push   %ebp
 2000827:	89 e5                	mov    %esp,%ebp
 2000829:	56                   	push   %esi
 200082a:	83 ec 10             	sub    $0x10,%esp
 200082d:	90                   	nop
 200082e:	89 f0                	mov    %esi,%eax
 2000830:	89 45 f8             	mov    %eax,-0x8(%ebp)
 2000833:	8b 45 f8             	mov    -0x8(%ebp),%eax
 2000836:	83 c4 10             	add    $0x10,%esp
 2000839:	5e                   	pop    %esi
 200083a:	5d                   	pop    %ebp
 200083b:	c3                   	ret    

0200083c <get_reg_edi>:
 200083c:	55                   	push   %ebp
 200083d:	89 e5                	mov    %esp,%ebp
 200083f:	57                   	push   %edi
 2000840:	83 ec 10             	sub    $0x10,%esp
 2000843:	90                   	nop
 2000844:	89 f8                	mov    %edi,%eax
 2000846:	89 45 f8             	mov    %eax,-0x8(%ebp)
 2000849:	8b 45 f8             	mov    -0x8(%ebp),%eax
 200084c:	83 c4 10             	add    $0x10,%esp
 200084f:	5f                   	pop    %edi
 2000850:	5d                   	pop    %ebp
 2000851:	c3                   	ret    

02000852 <kmain>:
 2000852:	55                   	push   %ebp
 2000853:	89 e5                	mov    %esp,%ebp
 2000855:	83 ec 08             	sub    $0x8,%esp
 2000858:	e8 b8 ff ff ff       	call   2000815 <get_reg_edx>
 200085d:	a3 a4 34 00 02       	mov    %eax,0x20034a4
 2000862:	c7 05 a8 34 00 02 00 	movl   $0x400,0x20034a8
 2000869:	04 00 00 
 200086c:	c7 05 ac 34 00 02 00 	movl   $0x300,0x20034ac
 2000873:	03 00 00 
 2000876:	83 ec 0c             	sub    $0xc,%esp
 2000879:	6a 00                	push   $0x0
 200087b:	68 ff ff ff 00       	push   $0xffffff
 2000880:	68 60 1e 00 02       	push   $0x2001e60
 2000885:	6a 00                	push   $0x0
 2000887:	6a 00                	push   $0x0
 2000889:	e8 c1 13 00 00       	call   2001c4f <kputstr>
 200088e:	83 c4 20             	add    $0x20,%esp
 2000891:	83 ec 0c             	sub    $0xc,%esp
 2000894:	6a 00                	push   $0x0
 2000896:	68 ff ff ff 00       	push   $0xffffff
 200089b:	68 78 1e 00 02       	push   $0x2001e78
 20008a0:	6a 01                	push   $0x1
 20008a2:	6a 00                	push   $0x0
 20008a4:	e8 a6 13 00 00       	call   2001c4f <kputstr>
 20008a9:	83 c4 20             	add    $0x20,%esp
 20008ac:	e8 2e ff ff ff       	call   20007df <get_reg_eax>
 20008b1:	83 ec 0c             	sub    $0xc,%esp
 20008b4:	6a 00                	push   $0x0
 20008b6:	68 ff ff ff 00       	push   $0xffffff
 20008bb:	50                   	push   %eax
 20008bc:	6a 01                	push   $0x1
 20008be:	6a 04                	push   $0x4
 20008c0:	e8 ee 13 00 00       	call   2001cb3 <kputnum>
 20008c5:	83 c4 20             	add    $0x20,%esp
 20008c8:	83 ec 0c             	sub    $0xc,%esp
 20008cb:	6a 00                	push   $0x0
 20008cd:	68 ff ff ff 00       	push   $0xffffff
 20008d2:	68 7d 1e 00 02       	push   $0x2001e7d
 20008d7:	6a 02                	push   $0x2
 20008d9:	6a 00                	push   $0x0
 20008db:	e8 6f 13 00 00       	call   2001c4f <kputstr>
 20008e0:	83 c4 20             	add    $0x20,%esp
 20008e3:	e8 06 ff ff ff       	call   20007ee <get_reg_ebx>
 20008e8:	83 ec 0c             	sub    $0xc,%esp
 20008eb:	6a 00                	push   $0x0
 20008ed:	68 ff ff ff 00       	push   $0xffffff
 20008f2:	50                   	push   %eax
 20008f3:	6a 02                	push   $0x2
 20008f5:	6a 04                	push   $0x4
 20008f7:	e8 b7 13 00 00       	call   2001cb3 <kputnum>
 20008fc:	83 c4 20             	add    $0x20,%esp
 20008ff:	83 ec 0c             	sub    $0xc,%esp
 2000902:	6a 00                	push   $0x0
 2000904:	68 ff ff ff 00       	push   $0xffffff
 2000909:	68 82 1e 00 02       	push   $0x2001e82
 200090e:	6a 03                	push   $0x3
 2000910:	6a 00                	push   $0x0
 2000912:	e8 38 13 00 00       	call   2001c4f <kputstr>
 2000917:	83 c4 20             	add    $0x20,%esp
 200091a:	e8 e5 fe ff ff       	call   2000804 <get_reg_ecx>
 200091f:	83 ec 0c             	sub    $0xc,%esp
 2000922:	6a 00                	push   $0x0
 2000924:	68 ff ff ff 00       	push   $0xffffff
 2000929:	50                   	push   %eax
 200092a:	6a 03                	push   $0x3
 200092c:	6a 04                	push   $0x4
 200092e:	e8 80 13 00 00       	call   2001cb3 <kputnum>
 2000933:	83 c4 20             	add    $0x20,%esp
 2000936:	83 ec 0c             	sub    $0xc,%esp
 2000939:	6a 00                	push   $0x0
 200093b:	68 ff ff ff 00       	push   $0xffffff
 2000940:	68 87 1e 00 02       	push   $0x2001e87
 2000945:	6a 04                	push   $0x4
 2000947:	6a 00                	push   $0x0
 2000949:	e8 01 13 00 00       	call   2001c4f <kputstr>
 200094e:	83 c4 20             	add    $0x20,%esp
 2000951:	e8 bf fe ff ff       	call   2000815 <get_reg_edx>
 2000956:	83 ec 0c             	sub    $0xc,%esp
 2000959:	6a 00                	push   $0x0
 200095b:	68 ff ff ff 00       	push   $0xffffff
 2000960:	50                   	push   %eax
 2000961:	6a 04                	push   $0x4
 2000963:	6a 04                	push   $0x4
 2000965:	e8 49 13 00 00       	call   2001cb3 <kputnum>
 200096a:	83 c4 20             	add    $0x20,%esp
 200096d:	83 ec 0c             	sub    $0xc,%esp
 2000970:	6a 00                	push   $0x0
 2000972:	68 ff ff ff 00       	push   $0xffffff
 2000977:	68 8c 1e 00 02       	push   $0x2001e8c
 200097c:	6a 05                	push   $0x5
 200097e:	6a 00                	push   $0x0
 2000980:	e8 ca 12 00 00       	call   2001c4f <kputstr>
 2000985:	83 c4 20             	add    $0x20,%esp
 2000988:	e8 99 fe ff ff       	call   2000826 <get_reg_esi>
 200098d:	83 ec 0c             	sub    $0xc,%esp
 2000990:	6a 00                	push   $0x0
 2000992:	68 ff ff ff 00       	push   $0xffffff
 2000997:	50                   	push   %eax
 2000998:	6a 05                	push   $0x5
 200099a:	6a 04                	push   $0x4
 200099c:	e8 12 13 00 00       	call   2001cb3 <kputnum>
 20009a1:	83 c4 20             	add    $0x20,%esp
 20009a4:	83 ec 0c             	sub    $0xc,%esp
 20009a7:	6a 00                	push   $0x0
 20009a9:	68 ff ff ff 00       	push   $0xffffff
 20009ae:	68 91 1e 00 02       	push   $0x2001e91
 20009b3:	6a 06                	push   $0x6
 20009b5:	6a 00                	push   $0x0
 20009b7:	e8 93 12 00 00       	call   2001c4f <kputstr>
 20009bc:	83 c4 20             	add    $0x20,%esp
 20009bf:	e8 78 fe ff ff       	call   200083c <get_reg_edi>
 20009c4:	83 ec 0c             	sub    $0xc,%esp
 20009c7:	6a 00                	push   $0x0
 20009c9:	68 ff ff ff 00       	push   $0xffffff
 20009ce:	50                   	push   %eax
 20009cf:	6a 06                	push   $0x6
 20009d1:	6a 04                	push   $0x4
 20009d3:	e8 db 12 00 00       	call   2001cb3 <kputnum>
 20009d8:	83 c4 20             	add    $0x20,%esp
 20009db:	83 ec 0c             	sub    $0xc,%esp
 20009de:	6a 00                	push   $0x0
 20009e0:	68 ff ff ff 00       	push   $0xffffff
 20009e5:	68 98 1e 00 02       	push   $0x2001e98
 20009ea:	6a 07                	push   $0x7
 20009ec:	6a 00                	push   $0x0
 20009ee:	e8 5c 12 00 00       	call   2001c4f <kputstr>
 20009f3:	83 c4 20             	add    $0x20,%esp
 20009f6:	a1 a4 34 00 02       	mov    0x20034a4,%eax
 20009fb:	83 ec 0c             	sub    $0xc,%esp
 20009fe:	6a 00                	push   $0x0
 2000a00:	68 ff ff ff 00       	push   $0xffffff
 2000a05:	50                   	push   %eax
 2000a06:	6a 07                	push   $0x7
 2000a08:	6a 04                	push   $0x4
 2000a0a:	e8 a4 12 00 00       	call   2001cb3 <kputnum>
 2000a0f:	83 c4 20             	add    $0x20,%esp
 2000a12:	a1 a8 34 00 02       	mov    0x20034a8,%eax
 2000a17:	83 ec 0c             	sub    $0xc,%esp
 2000a1a:	6a 00                	push   $0x0
 2000a1c:	68 ff ff ff 00       	push   $0xffffff
 2000a21:	50                   	push   %eax
 2000a22:	6a 07                	push   $0x7
 2000a24:	6a 11                	push   $0x11
 2000a26:	e8 88 12 00 00       	call   2001cb3 <kputnum>
 2000a2b:	83 c4 20             	add    $0x20,%esp
 2000a2e:	a1 ac 34 00 02       	mov    0x20034ac,%eax
 2000a33:	83 ec 0c             	sub    $0xc,%esp
 2000a36:	6a 00                	push   $0x0
 2000a38:	68 ff ff ff 00       	push   $0xffffff
 2000a3d:	50                   	push   %eax
 2000a3e:	6a 07                	push   $0x7
 2000a40:	6a 20                	push   $0x20
 2000a42:	e8 6c 12 00 00       	call   2001cb3 <kputnum>
 2000a47:	83 c4 20             	add    $0x20,%esp
 2000a4a:	a1 a8 34 00 02       	mov    0x20034a8,%eax
 2000a4f:	c1 e8 03             	shr    $0x3,%eax
 2000a52:	83 ec 0c             	sub    $0xc,%esp
 2000a55:	6a 00                	push   $0x0
 2000a57:	68 ff ff ff 00       	push   $0xffffff
 2000a5c:	50                   	push   %eax
 2000a5d:	6a 07                	push   $0x7
 2000a5f:	6a 31                	push   $0x31
 2000a61:	e8 4d 12 00 00       	call   2001cb3 <kputnum>
 2000a66:	83 c4 20             	add    $0x20,%esp
 2000a69:	a1 ac 34 00 02       	mov    0x20034ac,%eax
 2000a6e:	c1 e8 04             	shr    $0x4,%eax
 2000a71:	83 ec 0c             	sub    $0xc,%esp
 2000a74:	6a 00                	push   $0x0
 2000a76:	68 ff ff ff 00       	push   $0xffffff
 2000a7b:	50                   	push   %eax
 2000a7c:	6a 07                	push   $0x7
 2000a7e:	6a 3f                	push   $0x3f
 2000a80:	e8 2e 12 00 00       	call   2001cb3 <kputnum>
 2000a85:	83 c4 20             	add    $0x20,%esp
 2000a88:	83 ec 0c             	sub    $0xc,%esp
 2000a8b:	6a 00                	push   $0x0
 2000a8d:	68 00 00 ff 00       	push   $0xff0000
 2000a92:	6a 30                	push   $0x30
 2000a94:	6a 08                	push   $0x8
 2000a96:	6a 00                	push   $0x0
 2000a98:	e8 c8 10 00 00       	call   2001b65 <kputchar>
 2000a9d:	83 c4 20             	add    $0x20,%esp
 2000aa0:	83 ec 0c             	sub    $0xc,%esp
 2000aa3:	6a 00                	push   $0x0
 2000aa5:	68 00 ff 00 00       	push   $0xff00
 2000aaa:	6a 30                	push   $0x30
 2000aac:	6a 08                	push   $0x8
 2000aae:	6a 01                	push   $0x1
 2000ab0:	e8 b0 10 00 00       	call   2001b65 <kputchar>
 2000ab5:	83 c4 20             	add    $0x20,%esp
 2000ab8:	83 ec 0c             	sub    $0xc,%esp
 2000abb:	6a 00                	push   $0x0
 2000abd:	68 ff 00 00 00       	push   $0xff
 2000ac2:	6a 30                	push   $0x30
 2000ac4:	6a 08                	push   $0x8
 2000ac6:	6a 02                	push   $0x2
 2000ac8:	e8 98 10 00 00       	call   2001b65 <kputchar>
 2000acd:	83 c4 20             	add    $0x20,%esp
 2000ad0:	83 ec 0c             	sub    $0xc,%esp
 2000ad3:	6a 00                	push   $0x0
 2000ad5:	68 00 ff ff 00       	push   $0xffff00
 2000ada:	6a 30                	push   $0x30
 2000adc:	6a 08                	push   $0x8
 2000ade:	6a 03                	push   $0x3
 2000ae0:	e8 80 10 00 00       	call   2001b65 <kputchar>
 2000ae5:	83 c4 20             	add    $0x20,%esp
 2000ae8:	83 ec 0c             	sub    $0xc,%esp
 2000aeb:	6a 00                	push   $0x0
 2000aed:	68 ff ff 00 00       	push   $0xffff
 2000af2:	6a 30                	push   $0x30
 2000af4:	6a 08                	push   $0x8
 2000af6:	6a 04                	push   $0x4
 2000af8:	e8 68 10 00 00       	call   2001b65 <kputchar>
 2000afd:	83 c4 20             	add    $0x20,%esp
 2000b00:	83 ec 0c             	sub    $0xc,%esp
 2000b03:	6a 00                	push   $0x0
 2000b05:	68 ff 00 ff 00       	push   $0xff00ff
 2000b0a:	6a 30                	push   $0x30
 2000b0c:	6a 08                	push   $0x8
 2000b0e:	6a 05                	push   $0x5
 2000b10:	e8 50 10 00 00       	call   2001b65 <kputchar>
 2000b15:	83 c4 20             	add    $0x20,%esp
 2000b18:	e8 e8 fa ff ff       	call   2000605 <init_interrupt>
 2000b1d:	e8 35 10 00 00       	call   2001b57 <hlt_cpu>
 2000b22:	90                   	nop
 2000b23:	c9                   	leave  
 2000b24:	c3                   	ret    

02000b25 <_kstart>:
 2000b25:	89 d8                	mov    %ebx,%eax

02000b27 <.lopsvge>:
 2000b27:	83 c3 01             	add    $0x1,%ebx
 2000b2a:	83 3b 07             	cmpl   $0x7,(%ebx)
 2000b2d:	75 f8                	jne    2000b27 <.lopsvge>
 2000b2f:	81 7b 04 10 03 00 00 	cmpl   $0x310,0x4(%ebx)
 2000b36:	75 ef                	jne    2000b27 <.lopsvge>
 2000b38:	81 c3 38 02 00 00    	add    $0x238,%ebx
 2000b3e:	b9 00 50 00 00       	mov    $0x5000,%ecx
 2000b43:	8b 13                	mov    (%ebx),%edx
 2000b45:	0f 01 1d 51 1b 00 02 	lidtl  0x2001b51
 2000b4c:	e9 01 fd ff ff       	jmp    2000852 <kmain>

02000b51 <sys_idt>:
	...

02001b51 <idt_e>:
 2001b51:	ff 0f                	decl   (%edi)
 2001b53:	51                   	push   %ecx
 2001b54:	0b 00                	or     (%eax),%eax
 2001b56:	02 55 89             	add    -0x77(%ebp),%dl

02001b57 <hlt_cpu>:
 2001b57:	55                   	push   %ebp
 2001b58:	89 e5                	mov    %esp,%ebp
 2001b5a:	f4                   	hlt    
 2001b5b:	90                   	nop
 2001b5c:	5d                   	pop    %ebp
 2001b5d:	c3                   	ret    

02001b5e <sti>:
 2001b5e:	55                   	push   %ebp
 2001b5f:	89 e5                	mov    %esp,%ebp
 2001b61:	fb                   	sti    
 2001b62:	90                   	nop
 2001b63:	5d                   	pop    %ebp
 2001b64:	c3                   	ret    

02001b65 <kputchar>:
 2001b65:	55                   	push   %ebp
 2001b66:	89 e5                	mov    %esp,%ebp
 2001b68:	83 ec 14             	sub    $0x14,%esp
 2001b6b:	8b 45 10             	mov    0x10(%ebp),%eax
 2001b6e:	88 45 ec             	mov    %al,-0x14(%ebp)
 2001b71:	8b 15 a4 34 00 02    	mov    0x20034a4,%edx
 2001b77:	a1 a8 34 00 02       	mov    0x20034a8,%eax
 2001b7c:	0f af 45 0c          	imul   0xc(%ebp),%eax
 2001b80:	8d 0c 00             	lea    (%eax,%eax,1),%ecx
 2001b83:	8b 45 08             	mov    0x8(%ebp),%eax
 2001b86:	01 c8                	add    %ecx,%eax
 2001b88:	c1 e0 05             	shl    $0x5,%eax
 2001b8b:	01 d0                	add    %edx,%eax
 2001b8d:	89 45 fc             	mov    %eax,-0x4(%ebp)
 2001b90:	c7 45 f8 00 00 00 00 	movl   $0x0,-0x8(%ebp)
 2001b97:	e9 a5 00 00 00       	jmp    2001c41 <kputchar+0xdc>
 2001b9c:	c7 45 f4 00 00 00 00 	movl   $0x0,-0xc(%ebp)
 2001ba3:	eb 7f                	jmp    2001c24 <kputchar+0xbf>
 2001ba5:	0f b6 45 ec          	movzbl -0x14(%ebp),%eax
 2001ba9:	c1 e0 05             	shl    $0x5,%eax
 2001bac:	89 c2                	mov    %eax,%edx
 2001bae:	8b 45 f8             	mov    -0x8(%ebp),%eax
 2001bb1:	01 d0                	add    %edx,%eax
 2001bb3:	05 80 22 00 02       	add    $0x2002280,%eax
 2001bb8:	0f b6 00             	movzbl (%eax),%eax
 2001bbb:	0f b6 d0             	movzbl %al,%edx
 2001bbe:	b8 08 00 00 00       	mov    $0x8,%eax
 2001bc3:	2b 45 f4             	sub    -0xc(%ebp),%eax
 2001bc6:	89 c1                	mov    %eax,%ecx
 2001bc8:	d3 fa                	sar    %cl,%edx
 2001bca:	89 d0                	mov    %edx,%eax
 2001bcc:	83 e0 01             	and    $0x1,%eax
 2001bcf:	85 c0                	test   %eax,%eax
 2001bd1:	74 0a                	je     2001bdd <kputchar+0x78>
 2001bd3:	8b 45 fc             	mov    -0x4(%ebp),%eax
 2001bd6:	8b 55 14             	mov    0x14(%ebp),%edx
 2001bd9:	89 10                	mov    %edx,(%eax)
 2001bdb:	eb 08                	jmp    2001be5 <kputchar+0x80>
 2001bdd:	8b 45 fc             	mov    -0x4(%ebp),%eax
 2001be0:	8b 55 18             	mov    0x18(%ebp),%edx
 2001be3:	89 10                	mov    %edx,(%eax)
 2001be5:	0f b6 45 ec          	movzbl -0x14(%ebp),%eax
 2001be9:	8b 55 f8             	mov    -0x8(%ebp),%edx
 2001bec:	83 c2 10             	add    $0x10,%edx
 2001bef:	c1 e0 05             	shl    $0x5,%eax
 2001bf2:	01 d0                	add    %edx,%eax
 2001bf4:	05 80 22 00 02       	add    $0x2002280,%eax
 2001bf9:	0f b6 00             	movzbl (%eax),%eax
 2001bfc:	0f b6 d0             	movzbl %al,%edx
 2001bff:	b8 08 00 00 00       	mov    $0x8,%eax
 2001c04:	2b 45 f4             	sub    -0xc(%ebp),%eax
 2001c07:	89 c1                	mov    %eax,%ecx
 2001c09:	d3 fa                	sar    %cl,%edx
 2001c0b:	89 d0                	mov    %edx,%eax
 2001c0d:	83 e0 01             	and    $0x1,%eax
 2001c10:	85 c0                	test   %eax,%eax
 2001c12:	74 08                	je     2001c1c <kputchar+0xb7>
 2001c14:	8b 45 fc             	mov    -0x4(%ebp),%eax
 2001c17:	8b 55 14             	mov    0x14(%ebp),%edx
 2001c1a:	89 10                	mov    %edx,(%eax)
 2001c1c:	83 45 fc 04          	addl   $0x4,-0x4(%ebp)
 2001c20:	83 45 f4 01          	addl   $0x1,-0xc(%ebp)
 2001c24:	83 7d f4 07          	cmpl   $0x7,-0xc(%ebp)
 2001c28:	0f 86 77 ff ff ff    	jbe    2001ba5 <kputchar+0x40>
 2001c2e:	83 6d fc 20          	subl   $0x20,-0x4(%ebp)
 2001c32:	a1 a8 34 00 02       	mov    0x20034a8,%eax
 2001c37:	c1 e0 02             	shl    $0x2,%eax
 2001c3a:	01 45 fc             	add    %eax,-0x4(%ebp)
 2001c3d:	83 45 f8 01          	addl   $0x1,-0x8(%ebp)
 2001c41:	83 7d f8 0f          	cmpl   $0xf,-0x8(%ebp)
 2001c45:	0f 86 51 ff ff ff    	jbe    2001b9c <kputchar+0x37>
 2001c4b:	90                   	nop
 2001c4c:	90                   	nop
 2001c4d:	c9                   	leave  
 2001c4e:	c3                   	ret    

02001c4f <kputstr>:
 2001c4f:	55                   	push   %ebp
 2001c50:	89 e5                	mov    %esp,%ebp
 2001c52:	83 ec 10             	sub    $0x10,%esp
 2001c55:	8b 45 0c             	mov    0xc(%ebp),%eax
 2001c58:	89 45 fc             	mov    %eax,-0x4(%ebp)
 2001c5b:	c7 45 f8 00 00 00 00 	movl   $0x0,-0x8(%ebp)
 2001c62:	eb 41                	jmp    2001ca5 <kputstr+0x56>
 2001c64:	8b 45 10             	mov    0x10(%ebp),%eax
 2001c67:	0f b6 00             	movzbl (%eax),%eax
 2001c6a:	0f b6 c0             	movzbl %al,%eax
 2001c6d:	83 f8 0a             	cmp    $0xa,%eax
 2001c70:	75 06                	jne    2001c78 <kputstr+0x29>
 2001c72:	83 45 fc 01          	addl   $0x1,-0x4(%ebp)
 2001c76:	eb 25                	jmp    2001c9d <kputstr+0x4e>
 2001c78:	8b 45 10             	mov    0x10(%ebp),%eax
 2001c7b:	0f b6 00             	movzbl (%eax),%eax
 2001c7e:	0f b6 c0             	movzbl %al,%eax
 2001c81:	8b 4d 08             	mov    0x8(%ebp),%ecx
 2001c84:	8b 55 f8             	mov    -0x8(%ebp),%edx
 2001c87:	01 ca                	add    %ecx,%edx
 2001c89:	ff 75 18             	pushl  0x18(%ebp)
 2001c8c:	ff 75 14             	pushl  0x14(%ebp)
 2001c8f:	50                   	push   %eax
 2001c90:	ff 75 fc             	pushl  -0x4(%ebp)
 2001c93:	52                   	push   %edx
 2001c94:	e8 cc fe ff ff       	call   2001b65 <kputchar>
 2001c99:	83 c4 14             	add    $0x14,%esp
 2001c9c:	90                   	nop
 2001c9d:	83 45 10 01          	addl   $0x1,0x10(%ebp)
 2001ca1:	83 45 f8 01          	addl   $0x1,-0x8(%ebp)
 2001ca5:	8b 45 10             	mov    0x10(%ebp),%eax
 2001ca8:	0f b6 00             	movzbl (%eax),%eax
 2001cab:	84 c0                	test   %al,%al
 2001cad:	75 b5                	jne    2001c64 <kputstr+0x15>
 2001caf:	90                   	nop
 2001cb0:	90                   	nop
 2001cb1:	c9                   	leave  
 2001cb2:	c3                   	ret    

02001cb3 <kputnum>:
 2001cb3:	55                   	push   %ebp
 2001cb4:	89 e5                	mov    %esp,%ebp
 2001cb6:	83 ec 10             	sub    $0x10,%esp
 2001cb9:	c7 45 f1 30 78 3f 3f 	movl   $0x3f3f7830,-0xf(%ebp)
 2001cc0:	c7 45 f5 3f 3f 3f 3f 	movl   $0x3f3f3f3f,-0xb(%ebp)
 2001cc7:	66 c7 45 f9 3f 3f    	movw   $0x3f3f,-0x7(%ebp)
 2001ccd:	c6 45 fb 00          	movb   $0x0,-0x5(%ebp)
 2001cd1:	c7 45 fc 02 00 00 00 	movl   $0x2,-0x4(%ebp)
 2001cd8:	e9 1e 01 00 00       	jmp    2001dfb <kputnum+0x148>
 2001cdd:	b8 09 00 00 00       	mov    $0x9,%eax
 2001ce2:	2b 45 fc             	sub    -0x4(%ebp),%eax
 2001ce5:	c1 e0 02             	shl    $0x2,%eax
 2001ce8:	8b 55 10             	mov    0x10(%ebp),%edx
 2001ceb:	89 c1                	mov    %eax,%ecx
 2001ced:	d3 ea                	shr    %cl,%edx
 2001cef:	89 d0                	mov    %edx,%eax
 2001cf1:	83 e0 0f             	and    $0xf,%eax
 2001cf4:	83 f8 0f             	cmp    $0xf,%eax
 2001cf7:	0f 87 ee 00 00 00    	ja     2001deb <kputnum+0x138>
 2001cfd:	8b 04 85 e4 1e 00 02 	mov    0x2001ee4(,%eax,4),%eax
 2001d04:	ff e0                	jmp    *%eax
 2001d06:	8d 55 f1             	lea    -0xf(%ebp),%edx
 2001d09:	8b 45 fc             	mov    -0x4(%ebp),%eax
 2001d0c:	01 d0                	add    %edx,%eax
 2001d0e:	c6 00 30             	movb   $0x30,(%eax)
 2001d11:	e9 e1 00 00 00       	jmp    2001df7 <kputnum+0x144>
 2001d16:	8d 55 f1             	lea    -0xf(%ebp),%edx
 2001d19:	8b 45 fc             	mov    -0x4(%ebp),%eax
 2001d1c:	01 d0                	add    %edx,%eax
 2001d1e:	c6 00 31             	movb   $0x31,(%eax)
 2001d21:	e9 d1 00 00 00       	jmp    2001df7 <kputnum+0x144>
 2001d26:	8d 55 f1             	lea    -0xf(%ebp),%edx
 2001d29:	8b 45 fc             	mov    -0x4(%ebp),%eax
 2001d2c:	01 d0                	add    %edx,%eax
 2001d2e:	c6 00 32             	movb   $0x32,(%eax)
 2001d31:	e9 c1 00 00 00       	jmp    2001df7 <kputnum+0x144>
 2001d36:	8d 55 f1             	lea    -0xf(%ebp),%edx
 2001d39:	8b 45 fc             	mov    -0x4(%ebp),%eax
 2001d3c:	01 d0                	add    %edx,%eax
 2001d3e:	c6 00 33             	movb   $0x33,(%eax)
 2001d41:	e9 b1 00 00 00       	jmp    2001df7 <kputnum+0x144>
 2001d46:	8d 55 f1             	lea    -0xf(%ebp),%edx
 2001d49:	8b 45 fc             	mov    -0x4(%ebp),%eax
 2001d4c:	01 d0                	add    %edx,%eax
 2001d4e:	c6 00 34             	movb   $0x34,(%eax)
 2001d51:	e9 a1 00 00 00       	jmp    2001df7 <kputnum+0x144>
 2001d56:	8d 55 f1             	lea    -0xf(%ebp),%edx
 2001d59:	8b 45 fc             	mov    -0x4(%ebp),%eax
 2001d5c:	01 d0                	add    %edx,%eax
 2001d5e:	c6 00 35             	movb   $0x35,(%eax)
 2001d61:	e9 91 00 00 00       	jmp    2001df7 <kputnum+0x144>
 2001d66:	8d 55 f1             	lea    -0xf(%ebp),%edx
 2001d69:	8b 45 fc             	mov    -0x4(%ebp),%eax
 2001d6c:	01 d0                	add    %edx,%eax
 2001d6e:	c6 00 36             	movb   $0x36,(%eax)
 2001d71:	e9 81 00 00 00       	jmp    2001df7 <kputnum+0x144>
 2001d76:	8d 55 f1             	lea    -0xf(%ebp),%edx
 2001d79:	8b 45 fc             	mov    -0x4(%ebp),%eax
 2001d7c:	01 d0                	add    %edx,%eax
 2001d7e:	c6 00 37             	movb   $0x37,(%eax)
 2001d81:	eb 74                	jmp    2001df7 <kputnum+0x144>
 2001d83:	8d 55 f1             	lea    -0xf(%ebp),%edx
 2001d86:	8b 45 fc             	mov    -0x4(%ebp),%eax
 2001d89:	01 d0                	add    %edx,%eax
 2001d8b:	c6 00 38             	movb   $0x38,(%eax)
 2001d8e:	eb 67                	jmp    2001df7 <kputnum+0x144>
 2001d90:	8d 55 f1             	lea    -0xf(%ebp),%edx
 2001d93:	8b 45 fc             	mov    -0x4(%ebp),%eax
 2001d96:	01 d0                	add    %edx,%eax
 2001d98:	c6 00 39             	movb   $0x39,(%eax)
 2001d9b:	eb 5a                	jmp    2001df7 <kputnum+0x144>
 2001d9d:	8d 55 f1             	lea    -0xf(%ebp),%edx
 2001da0:	8b 45 fc             	mov    -0x4(%ebp),%eax
 2001da3:	01 d0                	add    %edx,%eax
 2001da5:	c6 00 41             	movb   $0x41,(%eax)
 2001da8:	eb 4d                	jmp    2001df7 <kputnum+0x144>
 2001daa:	8d 55 f1             	lea    -0xf(%ebp),%edx
 2001dad:	8b 45 fc             	mov    -0x4(%ebp),%eax
 2001db0:	01 d0                	add    %edx,%eax
 2001db2:	c6 00 42             	movb   $0x42,(%eax)
 2001db5:	eb 40                	jmp    2001df7 <kputnum+0x144>
 2001db7:	8d 55 f1             	lea    -0xf(%ebp),%edx
 2001dba:	8b 45 fc             	mov    -0x4(%ebp),%eax
 2001dbd:	01 d0                	add    %edx,%eax
 2001dbf:	c6 00 43             	movb   $0x43,(%eax)
 2001dc2:	eb 33                	jmp    2001df7 <kputnum+0x144>
 2001dc4:	8d 55 f1             	lea    -0xf(%ebp),%edx
 2001dc7:	8b 45 fc             	mov    -0x4(%ebp),%eax
 2001dca:	01 d0                	add    %edx,%eax
 2001dcc:	c6 00 44             	movb   $0x44,(%eax)
 2001dcf:	eb 26                	jmp    2001df7 <kputnum+0x144>
 2001dd1:	8d 55 f1             	lea    -0xf(%ebp),%edx
 2001dd4:	8b 45 fc             	mov    -0x4(%ebp),%eax
 2001dd7:	01 d0                	add    %edx,%eax
 2001dd9:	c6 00 45             	movb   $0x45,(%eax)
 2001ddc:	eb 19                	jmp    2001df7 <kputnum+0x144>
 2001dde:	8d 55 f1             	lea    -0xf(%ebp),%edx
 2001de1:	8b 45 fc             	mov    -0x4(%ebp),%eax
 2001de4:	01 d0                	add    %edx,%eax
 2001de6:	c6 00 46             	movb   $0x46,(%eax)
 2001de9:	eb 0c                	jmp    2001df7 <kputnum+0x144>
 2001deb:	8d 55 f1             	lea    -0xf(%ebp),%edx
 2001dee:	8b 45 fc             	mov    -0x4(%ebp),%eax
 2001df1:	01 d0                	add    %edx,%eax
 2001df3:	c6 00 2a             	movb   $0x2a,(%eax)
 2001df6:	90                   	nop
 2001df7:	83 45 fc 01          	addl   $0x1,-0x4(%ebp)
 2001dfb:	83 7d fc 09          	cmpl   $0x9,-0x4(%ebp)
 2001dff:	0f 86 d8 fe ff ff    	jbe    2001cdd <kputnum+0x2a>
 2001e05:	ff 75 18             	pushl  0x18(%ebp)
 2001e08:	ff 75 14             	pushl  0x14(%ebp)
 2001e0b:	8d 45 f1             	lea    -0xf(%ebp),%eax
 2001e0e:	50                   	push   %eax
 2001e0f:	ff 75 0c             	pushl  0xc(%ebp)
 2001e12:	ff 75 08             	pushl  0x8(%ebp)
 2001e15:	e8 35 fe ff ff       	call   2001c4f <kputstr>
 2001e1a:	83 c4 14             	add    $0x14,%esp
 2001e1d:	90                   	nop
 2001e1e:	c9                   	leave  
 2001e1f:	c3                   	ret    

Disassembly of section .rodata:

02001e20 <ata_port_master>:
 2001e20:	f0 01 f1             	lock add %esi,%ecx
 2001e23:	01 f2                	add    %esi,%edx
 2001e25:	01 f3                	add    %esi,%ebx
 2001e27:	01 f4                	add    %esi,%esp
 2001e29:	01 f5                	add    %esi,%ebp
 2001e2b:	01 f6                	add    %esi,%esi
 2001e2d:	01 f7                	add    %esi,%edi
 2001e2f:	01 10                	add    %edx,(%eax)
 2001e31:	00 55 6e             	add    %dl,0x6e(%ebp)
 2001e34:	6b 6e 6f 77          	imul   $0x77,0x6f(%esi),%ebp
 2001e38:	20 49 4e             	and    %cl,0x4e(%ecx)
 2001e3b:	54                   	push   %esp
 2001e3c:	00 4b 65             	add    %cl,0x65(%ebx)
 2001e3f:	79 62                	jns    2001ea3 <ata_port_master+0x83>
 2001e41:	6f                   	outsl  %ds:(%esi),(%dx)
 2001e42:	72 61                	jb     2001ea5 <ata_port_master+0x85>
 2001e44:	64 20 53 65          	and    %dl,%fs:0x65(%ebx)
 2001e48:	6e                   	outsb  %ds:(%esi),(%dx)
 2001e49:	74 20                	je     2001e6b <ata_port_master+0x4b>
 2001e4b:	44                   	inc    %esp
 2001e4c:	61                   	popa   
 2001e4d:	74 61                	je     2001eb0 <ata_port_master+0x90>
 2001e4f:	00 49 6e             	add    %cl,0x6e(%ecx)
 2001e52:	69 74 20 49 6e 74 65 	imul   $0x7265746e,0x49(%eax,%eiz,1),%esi
 2001e59:	72 
 2001e5a:	72 75                	jb     2001ed1 <ata_port_master+0xb1>
 2001e5c:	70 74                	jo     2001ed2 <ata_port_master+0xb2>
 2001e5e:	00 00                	add    %al,(%eax)
 2001e60:	57                   	push   %edi
 2001e61:	65 6c                	gs insb (%dx),%es:(%edi)
 2001e63:	63 6f 6d             	arpl   %bp,0x6d(%edi)
 2001e66:	65 20 74 6f 20       	and    %dh,%gs:0x20(%edi,%ebp,2)
 2001e6b:	4c                   	dec    %esp
 2001e6c:	69 74 68 69 75 6d 20 	imul   $0x4f206d75,0x69(%eax,%ebp,2),%esi
 2001e73:	4f 
 2001e74:	53                   	push   %ebx
 2001e75:	21 21                	and    %esp,(%ecx)
 2001e77:	00 45 41             	add    %al,0x41(%ebp)
 2001e7a:	58                   	pop    %eax
 2001e7b:	3a 00                	cmp    (%eax),%al
 2001e7d:	45                   	inc    %ebp
 2001e7e:	42                   	inc    %edx
 2001e7f:	58                   	pop    %eax
 2001e80:	3a 00                	cmp    (%eax),%al
 2001e82:	45                   	inc    %ebp
 2001e83:	43                   	inc    %ebx
 2001e84:	58                   	pop    %eax
 2001e85:	3a 00                	cmp    (%eax),%al
 2001e87:	45                   	inc    %ebp
 2001e88:	44                   	inc    %esp
 2001e89:	58                   	pop    %eax
 2001e8a:	3a 00                	cmp    (%eax),%al
 2001e8c:	45                   	inc    %ebp
 2001e8d:	53                   	push   %ebx
 2001e8e:	49                   	dec    %ecx
 2001e8f:	3a 00                	cmp    (%eax),%al
 2001e91:	45                   	inc    %ebp
 2001e92:	44                   	inc    %esp
 2001e93:	49                   	dec    %ecx
 2001e94:	3a 00                	cmp    (%eax),%al
 2001e96:	00 00                	add    %al,(%eax)
 2001e98:	56                   	push   %esi
 2001e99:	47                   	inc    %edi
 2001e9a:	41                   	inc    %ecx
 2001e9b:	3a 20                	cmp    (%eax),%ah
 2001e9d:	20 20                	and    %ah,(%eax)
 2001e9f:	20 20                	and    %ah,(%eax)
 2001ea1:	20 20                	and    %ah,(%eax)
 2001ea3:	20 20                	and    %ah,(%eax)
 2001ea5:	20 20                	and    %ah,(%eax)
 2001ea7:	40                   	inc    %eax
 2001ea8:	20 20                	and    %ah,(%eax)
 2001eaa:	20 20                	and    %ah,(%eax)
 2001eac:	20 20                	and    %ah,(%eax)
 2001eae:	20 20                	and    %ah,(%eax)
 2001eb0:	20 20                	and    %ah,(%eax)
 2001eb2:	20 20                	and    %ah,(%eax)
 2001eb4:	20 78 20             	and    %bh,0x20(%eax)
 2001eb7:	20 20                	and    %ah,(%eax)
 2001eb9:	20 20                	and    %ah,(%eax)
 2001ebb:	20 20                	and    %ah,(%eax)
 2001ebd:	20 20                	and    %ah,(%eax)
 2001ebf:	20 20                	and    %ah,(%eax)
 2001ec1:	20 20                	and    %ah,(%eax)
 2001ec3:	54                   	push   %esp
 2001ec4:	45                   	inc    %ebp
 2001ec5:	58                   	pop    %eax
 2001ec6:	54                   	push   %esp
 2001ec7:	3a 20                	cmp    (%eax),%ah
 2001ec9:	20 20                	and    %ah,(%eax)
 2001ecb:	20 20                	and    %ah,(%eax)
 2001ecd:	20 20                	and    %ah,(%eax)
 2001ecf:	20 20                	and    %ah,(%eax)
 2001ed1:	20 20                	and    %ah,(%eax)
 2001ed3:	20 20                	and    %ah,(%eax)
 2001ed5:	78 20                	js     2001ef7 <ata_port_master+0xd7>
 2001ed7:	20 20                	and    %ah,(%eax)
 2001ed9:	20 20                	and    %ah,(%eax)
 2001edb:	20 20                	and    %ah,(%eax)
 2001edd:	20 20                	and    %ah,(%eax)
 2001edf:	20 20                	and    %ah,(%eax)
 2001ee1:	20 00                	and    %al,(%eax)
 2001ee3:	00 06                	add    %al,(%esi)
 2001ee5:	1d 00 02 16 1d       	sbb    $0x1d160200,%eax
 2001eea:	00 02                	add    %al,(%edx)
 2001eec:	26 1d 00 02 36 1d    	es sbb $0x1d360200,%eax
 2001ef2:	00 02                	add    %al,(%edx)
 2001ef4:	46                   	inc    %esi
 2001ef5:	1d 00 02 56 1d       	sbb    $0x1d560200,%eax
 2001efa:	00 02                	add    %al,(%edx)
 2001efc:	66 1d 00 02          	sbb    $0x200,%ax
 2001f00:	76 1d                	jbe    2001f1f <ata_port_master+0xff>
 2001f02:	00 02                	add    %al,(%edx)
 2001f04:	83 1d 00 02 90 1d 00 	sbbl   $0x0,0x1d900200
 2001f0b:	02 9d 1d 00 02 aa    	add    -0x55fdffe3(%ebp),%bl
 2001f11:	1d 00 02 b7 1d       	sbb    $0x1db70200,%eax
 2001f16:	00 02                	add    %al,(%edx)
 2001f18:	c4 1d 00 02 d1 1d    	les    0x1dd10200,%ebx
 2001f1e:	00 02                	add    %al,(%edx)
 2001f20:	de                   	.byte 0xde
 2001f21:	1d                   	.byte 0x1d
 2001f22:	00 02                	add    %al,(%edx)

Disassembly of section .data:

02002260 <kbb_p>:
 2002260:	a0 32 00 02 00       	mov    0x20032,%al
	...

02002280 <unifont>:
 2002280:	aa                   	stos   %al,%es:(%edi)
 2002281:	aa                   	stos   %al,%es:(%edi)
 2002282:	00 01                	add    %al,(%ecx)
 2002284:	80 00 00             	addb   $0x0,(%eax)
 2002287:	01 80 00 4a 51 ea    	add    %eax,-0x15aeb600(%eax)
 200228d:	50                   	push   %eax
 200228e:	5a                   	pop    %edx
 200228f:	51                   	push   %ecx
 2002290:	c9                   	leave  
 2002291:	9e                   	sahf   
 2002292:	00 01                	add    %al,(%ecx)
 2002294:	80 00 00             	addb   $0x0,(%eax)
 2002297:	01 80 00 00 01 80    	add    %eax,-0x7fff0000(%eax)
 200229d:	00 55 55             	add    %dl,0x55(%ebp)
 20022a0:	aa                   	stos   %al,%es:(%edi)
 20022a1:	aa                   	stos   %al,%es:(%edi)
 20022a2:	00 01                	add    %al,(%ecx)
 20022a4:	80 00 00             	addb   $0x0,(%eax)
 20022a7:	01 80 00 39 93 c2    	add    %eax,-0x3d6cc700(%eax)
 20022ad:	52                   	push   %edx
 20022ae:	32 5f 8a             	xor    -0x76(%edi),%bl
 20022b1:	52                   	push   %edx
 20022b2:	71 93                	jno    2002247 <ata_port_master+0x427>
 20022b4:	80 00 00             	addb   $0x0,(%eax)
 20022b7:	01 80 00 00 01 80    	add    %eax,-0x7fff0000(%eax)
 20022bd:	00 55 55             	add    %dl,0x55(%ebp)
 20022c0:	aa                   	stos   %al,%es:(%edi)
 20022c1:	aa                   	stos   %al,%es:(%edi)
 20022c2:	00 01                	add    %al,(%ecx)
 20022c4:	80 00 00             	addb   $0x0,(%eax)
 20022c7:	01 80 00 3b a5 c1    	add    %eax,-0x3e5ac500(%eax)
 20022cd:	24 31                	and    $0x31,%al
 20022cf:	19 89 24 71 25 80    	sbb    %ecx,-0x7fda8edc(%ecx)
 20022d5:	00 00                	add    %al,(%eax)
 20022d7:	01 80 00 00 01 80    	add    %eax,-0x7fff0000(%eax)
 20022dd:	00 55 55             	add    %dl,0x55(%ebp)
 20022e0:	aa                   	stos   %al,%es:(%edi)
 20022e1:	aa                   	stos   %al,%es:(%edi)
 20022e2:	00 01                	add    %al,(%ecx)
 20022e4:	80 00 00             	addb   $0x0,(%eax)
 20022e7:	01 80 00 7b a5 c1    	add    %eax,-0x3e5a8500(%eax)
 20022ed:	24 79                	and    $0x79,%al
 20022ef:	19 c1                	sbb    %eax,%ecx
 20022f1:	24 79                	and    $0x79,%al
 20022f3:	25 80 00 00 01       	and    $0x1000080,%eax
 20022f8:	80 00 00             	addb   $0x0,(%eax)
 20022fb:	01 80 00 55 55 aa    	add    %eax,-0x55aaab00(%eax)
 2002301:	aa                   	stos   %al,%es:(%edi)
 2002302:	00 01                	add    %al,(%ecx)
 2002304:	80 00 00             	addb   $0x0,(%eax)
 2002307:	01 80 00 79 bf c2    	add    %eax,-0x3d408700(%eax)
 200230d:	48                   	dec    %eax
 200230e:	7a 49                	jp     2002359 <unifont+0xd9>
 2002310:	c2 48 79             	ret    $0x7948
 2002313:	89 80 00 00 01 80    	mov    %eax,-0x7fff0000(%eax)
 2002319:	00 00                	add    %al,(%eax)
 200231b:	01 80 00 55 55 aa    	add    %eax,-0x55aaab00(%eax)
 2002321:	aa                   	stos   %al,%es:(%edi)
 2002322:	00 01                	add    %al,(%ecx)
 2002324:	80 00 00             	addb   $0x0,(%eax)
 2002327:	01 80 00 7a 4d c2    	add    %eax,-0x3db28600(%eax)
 200232d:	52                   	push   %edx
 200232e:	7b 53                	jnp    2002383 <unifont+0x103>
 2002330:	c2 d6 7a             	ret    $0x7ad6
 2002333:	4f                   	dec    %edi
 2002334:	80 00 00             	addb   $0x0,(%eax)
 2002337:	01 80 00 00 01 80    	add    %eax,-0x7fff0000(%eax)
 200233d:	00 55 55             	add    %dl,0x55(%ebp)
 2002340:	aa                   	stos   %al,%es:(%edi)
 2002341:	aa                   	stos   %al,%es:(%edi)
 2002342:	00 01                	add    %al,(%ecx)
 2002344:	80 00 00             	addb   $0x0,(%eax)
 2002347:	01 80 00 31 a5 ca    	add    %eax,-0x355acf00(%eax)
 200234d:	28 7a 31             	sub    %bh,0x31(%edx)
 2002350:	ca 28 49             	lret   $0x4928
 2002353:	a5                   	movsl  %ds:(%esi),%es:(%edi)
 2002354:	80 00 00             	addb   $0x0,(%eax)
 2002357:	01 80 00 00 01 80    	add    %eax,-0x7fff0000(%eax)
 200235d:	00 55 55             	add    %dl,0x55(%ebp)
 2002360:	aa                   	stos   %al,%es:(%edi)
 2002361:	aa                   	stos   %al,%es:(%edi)
 2002362:	00 01                	add    %al,(%ecx)
 2002364:	80 00 00             	addb   $0x0,(%eax)
 2002367:	01 80 00 73 d1 ca    	add    %eax,-0x352e8d00(%eax)
 200236d:	10 73 d1             	adc    %dh,-0x2f(%ebx)
 2002370:	ca 10 73             	lret   $0x7310
 2002373:	df 80 00 00 01 80    	fild   -0x7fff0000(%eax)
 2002379:	00 00                	add    %al,(%eax)
 200237b:	01 80 00 55 55 aa    	add    %eax,-0x55aaab00(%eax)
 2002381:	aa                   	stos   %al,%es:(%edi)
 2002382:	00 01                	add    %al,(%ecx)
 2002384:	80 00 00             	addb   $0x0,(%eax)
 2002387:	01 80 00 1e 39 91    	add    %eax,-0x6ec6e200(%eax)
 200238d:	40                   	inc    %eax
 200238e:	1e                   	push   %ds
 200238f:	31 91 08 1e 71 80    	xor    %edx,-0x7f8ee1f8(%ecx)
 2002395:	00 00                	add    %al,(%eax)
 2002397:	01 80 00 00 01 80    	add    %eax,-0x7fff0000(%eax)
 200239d:	00 55 55             	add    %dl,0x55(%ebp)
 20023a0:	aa                   	stos   %al,%es:(%edi)
 20023a1:	aa                   	stos   %al,%es:(%edi)
 20023a2:	00 01                	add    %al,(%ecx)
 20023a4:	80 00 00             	addb   $0x0,(%eax)
 20023a7:	01 80 00 22 f9 a2    	add    %eax,-0x5d06de00(%eax)
 20023ad:	20 3e                	and    %bh,(%esi)
 20023af:	21 a2 20 22 21 80    	and    %esp,-0x7fdedde0(%edx)
 20023b5:	00 00                	add    %al,(%eax)
 20023b7:	01 80 00 00 01 80    	add    %eax,-0x7fff0000(%eax)
 20023bd:	00 55 55             	add    %dl,0x55(%ebp)
 20023c0:	aa                   	stos   %al,%es:(%edi)
 20023c1:	aa                   	stos   %al,%es:(%edi)
 20023c2:	00 01                	add    %al,(%ecx)
 20023c4:	80 00 00             	addb   $0x0,(%eax)
 20023c7:	01 80 00 20 f9 a0    	add    %eax,-0x5f06e000(%eax)
 20023cd:	80 20 f9             	andb   $0xf9,(%eax)
 20023d0:	a0 80 3e 81 80       	mov    0x80813e80,%al
 20023d5:	00 00                	add    %al,(%eax)
 20023d7:	01 80 00 00 01 80    	add    %eax,-0x7fff0000(%eax)
 20023dd:	00 55 55             	add    %dl,0x55(%ebp)
 20023e0:	aa                   	stos   %al,%es:(%edi)
 20023e1:	aa                   	stos   %al,%es:(%edi)
 20023e2:	00 01                	add    %al,(%ecx)
 20023e4:	80 00 00             	addb   $0x0,(%eax)
 20023e7:	01 80 00 22 f9 a2    	add    %eax,-0x5d06de00(%eax)
 20023ed:	20 22                	and    %ah,(%edx)
 20023ef:	21 94 20 08 21 80 00 	and    %edx,0x802108(%eax,%eiz,1)
 20023f6:	00 01                	add    %al,(%ecx)
 20023f8:	80 00 00             	addb   $0x0,(%eax)
 20023fb:	01 80 00 55 55 aa    	add    %eax,-0x55aaab00(%eax)
 2002401:	aa                   	stos   %al,%es:(%edi)
 2002402:	00 01                	add    %al,(%ecx)
 2002404:	80 00 00             	addb   $0x0,(%eax)
 2002407:	01 80 00 3e f9 a0    	add    %eax,-0x5f06c200(%eax)
 200240d:	80 3e f9             	cmpb   $0xf9,(%esi)
 2002410:	a0 80 20 81 80       	mov    0x80812080,%al
 2002415:	00 00                	add    %al,(%eax)
 2002417:	01 80 00 00 01 80    	add    %eax,-0x7fff0000(%eax)
 200241d:	00 55 55             	add    %dl,0x55(%ebp)
 2002420:	aa                   	stos   %al,%es:(%edi)
 2002421:	aa                   	stos   %al,%es:(%edi)
 2002422:	00 01                	add    %al,(%ecx)
 2002424:	80 00 00             	addb   $0x0,(%eax)
 2002427:	01 80 00 1e f1 a0    	add    %eax,-0x5f0ee200(%eax)
 200242d:	88 20                	mov    %ah,(%eax)
 200242f:	f1                   	icebp  
 2002430:	a0 90 1e 89 80       	mov    0x80891e90,%al
 2002435:	00 00                	add    %al,(%eax)
 2002437:	01 80 00 00 01 80    	add    %eax,-0x7fff0000(%eax)
 200243d:	00 55 55             	add    %dl,0x55(%ebp)
 2002440:	aa                   	stos   %al,%es:(%edi)
 2002441:	aa                   	stos   %al,%es:(%edi)
 2002442:	00 01                	add    %al,(%ecx)
 2002444:	80 00 00             	addb   $0x0,(%eax)
 2002447:	01 80 00 1e 71 a0    	add    %eax,-0x5f8ee200(%eax)
 200244d:	88 1c 89             	mov    %bl,(%ecx,%ecx,4)
 2002450:	82                   	(bad)  
 2002451:	88 3c 71             	mov    %bh,(%ecx,%esi,2)
 2002454:	80 00 00             	addb   $0x0,(%eax)
 2002457:	01 80 00 00 01 80    	add    %eax,-0x7fff0000(%eax)
 200245d:	00 55 55             	add    %dl,0x55(%ebp)
 2002460:	aa                   	stos   %al,%es:(%edi)
 2002461:	aa                   	stos   %al,%es:(%edi)
 2002462:	00 01                	add    %al,(%ecx)
 2002464:	80 00 00             	addb   $0x0,(%eax)
 2002467:	01 80 00 1e f9 a0    	add    %eax,-0x5f06e200(%eax)
 200246d:	20 1c 21             	and    %bl,(%ecx,%eiz,1)
 2002470:	82                   	(bad)  
 2002471:	20 3c f9             	and    %bh,(%ecx,%edi,8)
 2002474:	80 00 00             	addb   $0x0,(%eax)
 2002477:	01 80 00 00 01 80    	add    %eax,-0x7fff0000(%eax)
 200247d:	00 55 55             	add    %dl,0x55(%ebp)
 2002480:	aa                   	stos   %al,%es:(%edi)
 2002481:	aa                   	stos   %al,%es:(%edi)
 2002482:	00 01                	add    %al,(%ecx)
 2002484:	80 00 00             	addb   $0x0,(%eax)
 2002487:	01 80 00 39 1d a5    	add    %eax,-0x5ae2c700(%eax)
 200248d:	10 25 1d a5 10 39    	adc    %ah,0x3910a51d
 2002493:	dd 80 00 00 01 80    	fldl   -0x7fff0000(%eax)
 2002499:	00 00                	add    %al,(%eax)
 200249b:	01 80 00 55 55 aa    	add    %eax,-0x55aaab00(%eax)
 20024a1:	aa                   	stos   %al,%es:(%edi)
 20024a2:	00 01                	add    %al,(%ecx)
 20024a4:	80 00 00             	addb   $0x0,(%eax)
 20024a7:	01 80 00 71 89 ca    	add    %eax,-0x35768f00(%eax)
 20024ad:	18 4a 09             	sbb    %cl,0x9(%edx)
 20024b0:	ca 08 71             	lret   $0x7108
 20024b3:	9d                   	popf   
 20024b4:	80 00 00             	addb   $0x0,(%eax)
 20024b7:	01 80 00 00 01 80    	add    %eax,-0x7fff0000(%eax)
 20024bd:	00 55 55             	add    %dl,0x55(%ebp)
 20024c0:	aa                   	stos   %al,%es:(%edi)
 20024c1:	aa                   	stos   %al,%es:(%edi)
 20024c2:	00 01                	add    %al,(%ecx)
 20024c4:	80 00 00             	addb   $0x0,(%eax)
 20024c7:	01 80 00 71 99 ca    	add    %eax,-0x35668f00(%eax)
 20024cd:	04 4a                	add    $0x4a,%al
 20024cf:	09 ca                	or     %ecx,%edx
 20024d1:	10 71 9d             	adc    %dh,-0x63(%ecx)
 20024d4:	80 00 00             	addb   $0x0,(%eax)
 20024d7:	01 80 00 00 01 80    	add    %eax,-0x7fff0000(%eax)
 20024dd:	00 55 55             	add    %dl,0x55(%ebp)
 20024e0:	aa                   	stos   %al,%es:(%edi)
 20024e1:	aa                   	stos   %al,%es:(%edi)
 20024e2:	00 01                	add    %al,(%ecx)
 20024e4:	80 00 00             	addb   $0x0,(%eax)
 20024e7:	01 80 00 71 99 ca    	add    %eax,-0x35668f00(%eax)
 20024ed:	04 4a                	add    $0x4a,%al
 20024ef:	19 ca                	sbb    %ecx,%edx
 20024f1:	04 71                	add    $0x71,%al
 20024f3:	99                   	cltd   
 20024f4:	80 00 00             	addb   $0x0,(%eax)
 20024f7:	01 80 00 00 01 80    	add    %eax,-0x7fff0000(%eax)
 20024fd:	00 55 55             	add    %dl,0x55(%ebp)
 2002500:	aa                   	stos   %al,%es:(%edi)
 2002501:	aa                   	stos   %al,%es:(%edi)
 2002502:	00 01                	add    %al,(%ecx)
 2002504:	80 00 00             	addb   $0x0,(%eax)
 2002507:	01 80 00 71 85 ca    	add    %eax,-0x357a8f00(%eax)
 200250d:	0c 4a                	or     $0x4a,%al
 200250f:	15 ca 1c 71 85       	adc    $0x85711cca,%eax
 2002514:	80 00 00             	addb   $0x0,(%eax)
 2002517:	01 80 00 00 01 80    	add    %eax,-0x7fff0000(%eax)
 200251d:	00 55 55             	add    %dl,0x55(%ebp)
 2002520:	aa                   	stos   %al,%es:(%edi)
 2002521:	aa                   	stos   %al,%es:(%edi)
 2002522:	00 01                	add    %al,(%ecx)
 2002524:	80 00 00             	addb   $0x0,(%eax)
 2002527:	01 80 00 49 93 ea    	add    %eax,-0x156cb700(%eax)
 200252d:	54                   	push   %esp
 200252e:	6a 59                	push   $0x59
 2002530:	db d4                	fcmovnbe %st(4),%st
 2002532:	4a                   	dec    %edx
 2002533:	53                   	push   %ebx
 2002534:	80 00 00             	addb   $0x0,(%eax)
 2002537:	01 80 00 00 01 80    	add    %eax,-0x7fff0000(%eax)
 200253d:	00 55 55             	add    %dl,0x55(%ebp)
 2002540:	aa                   	stos   %al,%es:(%edi)
 2002541:	aa                   	stos   %al,%es:(%edi)
 2002542:	00 01                	add    %al,(%ecx)
 2002544:	80 00 00             	addb   $0x0,(%eax)
 2002547:	01 80 00 34 53 c2    	add    %eax,-0x3daccc00(%eax)
 200254d:	9a 31 17 89 12 71 13 	lcall  $0x1371,$0x12891731
 2002554:	80 00 00             	addb   $0x0,(%eax)
 2002557:	01 80 00 00 01 80    	add    %eax,-0x7fff0000(%eax)
 200255d:	00 55 55             	add    %dl,0x55(%ebp)
 2002560:	aa                   	stos   %al,%es:(%edi)
 2002561:	aa                   	stos   %al,%es:(%edi)
 2002562:	00 01                	add    %al,(%ecx)
 2002564:	80 00 00             	addb   $0x0,(%eax)
 2002567:	01 80 00 7b b9 c1    	add    %eax,-0x3e468500(%eax)
 200256d:	24 79                	and    $0x79,%al
 200256f:	39 c1                	cmp    %eax,%ecx
 2002571:	24 79                	and    $0x79,%al
 2002573:	39 80 00 00 01 80    	cmp    %eax,-0x7fff0000(%eax)
 2002579:	00 00                	add    %al,(%eax)
 200257b:	01 80 00 55 55 aa    	add    %eax,-0x55aaab00(%eax)
 2002581:	aa                   	stos   %al,%es:(%edi)
 2002582:	00 01                	add    %al,(%ecx)
 2002584:	80 00 00             	addb   $0x0,(%eax)
 2002587:	01 80 00 33 25 c4    	add    %eax,-0x3bdacd00(%eax)
 200258d:	b4 47                	mov    $0x47,%ah
 200258f:	ad                   	lods   %ds:(%esi),%eax
 2002590:	c4 a4 34 a5 80 00 00 	les    0x80a5(%esp,%esi,1),%esp
 2002597:	01 80 00 00 01 80    	add    %eax,-0x7fff0000(%eax)
 200259d:	00 55 55             	add    %dl,0x55(%ebp)
 20025a0:	aa                   	stos   %al,%es:(%edi)
 20025a1:	aa                   	stos   %al,%es:(%edi)
 20025a2:	00 01                	add    %al,(%ecx)
 20025a4:	80 00 00             	addb   $0x0,(%eax)
 20025a7:	01 80 00 3e 89 a0    	add    %eax,-0x5f76c200(%eax)
 20025ad:	d8 3e                	fdivrs (%esi)
 20025af:	a9 a0 88 3e 89       	test   $0x893e88a0,%eax
 20025b4:	80 00 00             	addb   $0x0,(%eax)
 20025b7:	01 80 00 00 01 80    	add    %eax,-0x7fff0000(%eax)
 20025bd:	00 55 55             	add    %dl,0x55(%ebp)
 20025c0:	aa                   	stos   %al,%es:(%edi)
 20025c1:	aa                   	stos   %al,%es:(%edi)
 20025c2:	00 01                	add    %al,(%ecx)
 20025c4:	80 00 00             	addb   $0x0,(%eax)
 20025c7:	01 80 00 3a 5d c2    	add    %eax,-0x3da2c600(%eax)
 20025cd:	52                   	push   %edx
 20025ce:	32 5d 8a             	xor    -0x76(%ebp),%bl
 20025d1:	52                   	push   %edx
 20025d2:	71 9d                	jno    2002571 <unifont+0x2f1>
 20025d4:	80 00 00             	addb   $0x0,(%eax)
 20025d7:	01 80 00 00 01 80    	add    %eax,-0x7fff0000(%eax)
 20025dd:	00 55 55             	add    %dl,0x55(%ebp)
 20025e0:	aa                   	stos   %al,%es:(%edi)
 20025e1:	aa                   	stos   %al,%es:(%edi)
 20025e2:	00 01                	add    %al,(%ecx)
 20025e4:	80 00 00             	addb   $0x0,(%eax)
 20025e7:	01 80 00 79 cf c2    	add    %eax,-0x3d308700(%eax)
 20025ed:	10 79 91             	adc    %bh,-0x6f(%ecx)
 20025f0:	c0 50 7b 8f          	rclb   $0x8f,0x7b(%eax)
 20025f4:	80 00 00             	addb   $0x0,(%eax)
 20025f7:	01 80 00 00 01 80    	add    %eax,-0x7fff0000(%eax)
 20025fd:	00 55 55             	add    %dl,0x55(%ebp)
 2002600:	aa                   	stos   %al,%es:(%edi)
 2002601:	aa                   	stos   %al,%es:(%edi)
 2002602:	00 01                	add    %al,(%ecx)
 2002604:	80 00 00             	addb   $0x0,(%eax)
 2002607:	01 80 00 1e 71 90    	add    %eax,-0x6f8ee200(%eax)
 200260d:	80 1e 61             	sbbb   $0x61,(%esi)
 2002610:	90                   	nop
 2002611:	10 10                	adc    %dl,(%eax)
 2002613:	e1 80                	loope  2002595 <unifont+0x315>
 2002615:	00 00                	add    %al,(%eax)
 2002617:	01 80 00 00 01 80    	add    %eax,-0x7fff0000(%eax)
 200261d:	00 55 55             	add    %dl,0x55(%ebp)
 2002620:	aa                   	stos   %al,%es:(%edi)
 2002621:	aa                   	stos   %al,%es:(%edi)
 2002622:	00 01                	add    %al,(%ecx)
 2002624:	80 00 00             	addb   $0x0,(%eax)
 2002627:	01 80 00 0e 71 90    	add    %eax,-0x6f8ef200(%eax)
 200262d:	80 16 61             	adcb   $0x61,(%esi)
 2002630:	92                   	xchg   %eax,%edx
 2002631:	10 0e                	adc    %cl,(%esi)
 2002633:	e1 80                	loope  20025b5 <unifont+0x335>
 2002635:	00 00                	add    %al,(%eax)
 2002637:	01 80 00 00 01 80    	add    %eax,-0x7fff0000(%eax)
 200263d:	00 55 55             	add    %dl,0x55(%ebp)
 2002640:	aa                   	stos   %al,%es:(%edi)
 2002641:	aa                   	stos   %al,%es:(%edi)
 2002642:	00 01                	add    %al,(%ecx)
 2002644:	80 00 00             	addb   $0x0,(%eax)
 2002647:	01 80 00 1c 71 92    	add    %eax,-0x6d8ee400(%eax)
 200264d:	80 1c 61 94          	sbbb   $0x94,(%ecx,%eiz,2)
 2002651:	10 12                	adc    %dl,(%edx)
 2002653:	e1 80                	loope  20025d5 <unifont+0x355>
 2002655:	00 00                	add    %al,(%eax)
 2002657:	01 80 00 00 01 80    	add    %eax,-0x7fff0000(%eax)
 200265d:	00 55 55             	add    %dl,0x55(%ebp)
 2002660:	aa                   	stos   %al,%es:(%edi)
 2002661:	aa                   	stos   %al,%es:(%edi)
 2002662:	00 01                	add    %al,(%ecx)
 2002664:	80 00 00             	addb   $0x0,(%eax)
 2002667:	01 80 00 12 71 92    	add    %eax,-0x6d8eee00(%eax)
 200266d:	80 12 61             	adcb   $0x61,(%edx)
 2002670:	92                   	xchg   %eax,%edx
 2002671:	10 0c e1             	adc    %cl,(%ecx,%eiz,8)
 2002674:	80 00 00             	addb   $0x0,(%eax)
 2002677:	01 80 00 00 01 80    	add    %eax,-0x7fff0000(%eax)
 200267d:	00 55 55             	add    %dl,0x55(%ebp)
	...
 20026a4:	08 08                	or     %cl,(%eax)
 20026a6:	08 08                	or     %cl,(%eax)
 20026a8:	08 08                	or     %cl,(%eax)
 20026aa:	08 00                	or     %al,(%eax)
 20026ac:	08 08                	or     %cl,(%eax)
	...
 20026c2:	22 22                	and    (%edx),%ah
 20026c4:	22 22                	and    (%edx),%ah
	...
 20026e2:	00 00                	add    %al,(%eax)
 20026e4:	12 12                	adc    (%edx),%dl
 20026e6:	12 7e 24             	adc    0x24(%esi),%bh
 20026e9:	24 7e                	and    $0x7e,%al
 20026eb:	48                   	dec    %eax
 20026ec:	48                   	dec    %eax
 20026ed:	48                   	dec    %eax
	...
 2002702:	00 00                	add    %al,(%eax)
 2002704:	08 3e                	or     %bh,(%esi)
 2002706:	49                   	dec    %ecx
 2002707:	48                   	dec    %eax
 2002708:	38 0e                	cmp    %cl,(%esi)
 200270a:	09 49 3e             	or     %ecx,0x3e(%ecx)
 200270d:	08 00                	or     %al,(%eax)
	...
 2002723:	00 31                	add    %dh,(%ecx)
 2002725:	4a                   	dec    %edx
 2002726:	4a                   	dec    %edx
 2002727:	34 08                	xor    $0x8,%al
 2002729:	08 16                	or     %dl,(%esi)
 200272b:	29 29                	sub    %ebp,(%ecx)
 200272d:	46                   	inc    %esi
	...
 2002742:	00 00                	add    %al,(%eax)
 2002744:	1c 22                	sbb    $0x22,%al
 2002746:	22 14 18             	and    (%eax,%ebx,1),%dl
 2002749:	29 45 42             	sub    %eax,0x42(%ebp)
 200274c:	46                   	inc    %esi
 200274d:	39 00                	cmp    %eax,(%eax)
	...
 200275f:	00 00                	add    %al,(%eax)
 2002761:	00 08                	add    %cl,(%eax)
 2002763:	08 08                	or     %cl,(%eax)
 2002765:	08 00                	or     %al,(%eax)
	...
 2002783:	04 08                	add    $0x8,%al
 2002785:	08 10                	or     %dl,(%eax)
 2002787:	10 10                	adc    %dl,(%eax)
 2002789:	10 10                	adc    %dl,(%eax)
 200278b:	10 08                	adc    %cl,(%eax)
 200278d:	08 04 00             	or     %al,(%eax,%eax,1)
	...
 20027a0:	00 00                	add    %al,(%eax)
 20027a2:	00 20                	add    %ah,(%eax)
 20027a4:	10 10                	adc    %dl,(%eax)
 20027a6:	08 08                	or     %cl,(%eax)
 20027a8:	08 08                	or     %cl,(%eax)
 20027aa:	08 08                	or     %cl,(%eax)
 20027ac:	10 10                	adc    %dl,(%eax)
 20027ae:	20 00                	and    %al,(%eax)
	...
 20027c4:	00 00                	add    %al,(%eax)
 20027c6:	08 49 2a             	or     %cl,0x2a(%ecx)
 20027c9:	1c 2a                	sbb    $0x2a,%al
 20027cb:	49                   	dec    %ecx
 20027cc:	08 00                	or     %al,(%eax)
	...
 20027e6:	08 08                	or     %cl,(%eax)
 20027e8:	08 7f 08             	or     %bh,0x8(%edi)
 20027eb:	08 08                	or     %cl,(%eax)
	...
 2002809:	00 00                	add    %al,(%eax)
 200280b:	00 18                	add    %bl,(%eax)
 200280d:	08 08                	or     %cl,(%eax)
 200280f:	10 00                	adc    %al,(%eax)
	...
 2002829:	3c 00                	cmp    $0x0,%al
	...
 200284b:	00 18                	add    %bl,(%eax)
 200284d:	18 00                	sbb    %al,(%eax)
	...
 2002863:	00 02                	add    %al,(%edx)
 2002865:	02 04 08             	add    (%eax,%ecx,1),%al
 2002868:	08 10                	or     %dl,(%eax)
 200286a:	10 20                	adc    %ah,(%eax)
 200286c:	40                   	inc    %eax
 200286d:	40                   	inc    %eax
	...
 2002882:	00 00                	add    %al,(%eax)
 2002884:	18 24 42             	sbb    %ah,(%edx,%eax,2)
 2002887:	46                   	inc    %esi
 2002888:	4a                   	dec    %edx
 2002889:	52                   	push   %edx
 200288a:	62 42 24             	bound  %eax,0x24(%edx)
 200288d:	18 00                	sbb    %al,(%eax)
	...
 20028a3:	00 08                	add    %cl,(%eax)
 20028a5:	18 28                	sbb    %ch,(%eax)
 20028a7:	08 08                	or     %cl,(%eax)
 20028a9:	08 08                	or     %cl,(%eax)
 20028ab:	08 08                	or     %cl,(%eax)
 20028ad:	3e 00 00             	add    %al,%ds:(%eax)
	...
 20028c4:	3c 42                	cmp    $0x42,%al
 20028c6:	42                   	inc    %edx
 20028c7:	02 0c 10             	add    (%eax,%edx,1),%cl
 20028ca:	20 40 40             	and    %al,0x40(%eax)
 20028cd:	7e 00                	jle    20028cf <unifont+0x64f>
	...
 20028e3:	00 3c 42             	add    %bh,(%edx,%eax,2)
 20028e6:	42                   	inc    %edx
 20028e7:	02 1c 02             	add    (%edx,%eax,1),%bl
 20028ea:	02 42 42             	add    0x42(%edx),%al
 20028ed:	3c 00                	cmp    $0x0,%al
	...
 2002903:	00 04 0c             	add    %al,(%esp,%ecx,1)
 2002906:	14 24                	adc    $0x24,%al
 2002908:	44                   	inc    %esp
 2002909:	44                   	inc    %esp
 200290a:	7e 04                	jle    2002910 <unifont+0x690>
 200290c:	04 04                	add    $0x4,%al
	...
 2002922:	00 00                	add    %al,(%eax)
 2002924:	7e 40                	jle    2002966 <unifont+0x6e6>
 2002926:	40                   	inc    %eax
 2002927:	40                   	inc    %eax
 2002928:	7c 02                	jl     200292c <unifont+0x6ac>
 200292a:	02 02                	add    (%edx),%al
 200292c:	42                   	inc    %edx
 200292d:	3c 00                	cmp    $0x0,%al
	...
 2002943:	00 1c 20             	add    %bl,(%eax,%eiz,1)
 2002946:	40                   	inc    %eax
 2002947:	40                   	inc    %eax
 2002948:	7c 42                	jl     200298c <unifont+0x70c>
 200294a:	42                   	inc    %edx
 200294b:	42                   	inc    %edx
 200294c:	42                   	inc    %edx
 200294d:	3c 00                	cmp    $0x0,%al
	...
 2002963:	00 7e 02             	add    %bh,0x2(%esi)
 2002966:	02 04 04             	add    (%esp,%eax,1),%al
 2002969:	04 08                	add    $0x8,%al
 200296b:	08 08                	or     %cl,(%eax)
 200296d:	08 00                	or     %al,(%eax)
	...
 2002983:	00 3c 42             	add    %bh,(%edx,%eax,2)
 2002986:	42                   	inc    %edx
 2002987:	42                   	inc    %edx
 2002988:	3c 42                	cmp    $0x42,%al
 200298a:	42                   	inc    %edx
 200298b:	42                   	inc    %edx
 200298c:	42                   	inc    %edx
 200298d:	3c 00                	cmp    $0x0,%al
	...
 20029a3:	00 3c 42             	add    %bh,(%edx,%eax,2)
 20029a6:	42                   	inc    %edx
 20029a7:	42                   	inc    %edx
 20029a8:	3e 02 02             	add    %ds:(%edx),%al
 20029ab:	02 04 38             	add    (%eax,%edi,1),%al
	...
 20029c6:	18 18                	sbb    %bl,(%eax)
 20029c8:	00 00                	add    %al,(%eax)
 20029ca:	00 18                	add    %bl,(%eax)
 20029cc:	18 00                	sbb    %al,(%eax)
	...
 20029e6:	18 18                	sbb    %bl,(%eax)
 20029e8:	00 00                	add    %al,(%eax)
 20029ea:	00 18                	add    %bl,(%eax)
 20029ec:	08 08                	or     %cl,(%eax)
 20029ee:	10 00                	adc    %al,(%eax)
	...
 2002a04:	00 02                	add    %al,(%edx)
 2002a06:	04 08                	add    $0x8,%al
 2002a08:	10 20                	adc    %ah,(%eax)
 2002a0a:	10 08                	adc    %cl,(%eax)
 2002a0c:	04 02                	add    $0x2,%al
	...
 2002a26:	00 7e 00             	add    %bh,0x0(%esi)
 2002a29:	00 00                	add    %al,(%eax)
 2002a2b:	7e 00                	jle    2002a2d <unifont+0x7ad>
	...
 2002a45:	40                   	inc    %eax
 2002a46:	20 10                	and    %dl,(%eax)
 2002a48:	08 04 08             	or     %al,(%eax,%ecx,1)
 2002a4b:	10 20                	adc    %ah,(%eax)
 2002a4d:	40                   	inc    %eax
	...
 2002a62:	00 00                	add    %al,(%eax)
 2002a64:	3c 42                	cmp    $0x42,%al
 2002a66:	42                   	inc    %edx
 2002a67:	02 04 08             	add    (%eax,%ecx,1),%al
 2002a6a:	08 00                	or     %al,(%eax)
 2002a6c:	08 08                	or     %cl,(%eax)
	...
 2002a82:	00 00                	add    %al,(%eax)
 2002a84:	1c 22                	sbb    $0x22,%al
 2002a86:	4a                   	dec    %edx
 2002a87:	56                   	push   %esi
 2002a88:	52                   	push   %edx
 2002a89:	52                   	push   %edx
 2002a8a:	52                   	push   %edx
 2002a8b:	4e                   	dec    %esi
 2002a8c:	20 1e                	and    %bl,(%esi)
	...
 2002aa2:	00 00                	add    %al,(%eax)
 2002aa4:	18 24 24             	sbb    %ah,(%esp)
 2002aa7:	42                   	inc    %edx
 2002aa8:	42                   	inc    %edx
 2002aa9:	7e 42                	jle    2002aed <unifont+0x86d>
 2002aab:	42                   	inc    %edx
 2002aac:	42                   	inc    %edx
 2002aad:	42                   	inc    %edx
	...
 2002ac2:	00 00                	add    %al,(%eax)
 2002ac4:	7c 42                	jl     2002b08 <unifont+0x888>
 2002ac6:	42                   	inc    %edx
 2002ac7:	42                   	inc    %edx
 2002ac8:	7c 42                	jl     2002b0c <unifont+0x88c>
 2002aca:	42                   	inc    %edx
 2002acb:	42                   	inc    %edx
 2002acc:	42                   	inc    %edx
 2002acd:	7c 00                	jl     2002acf <unifont+0x84f>
	...
 2002ae3:	00 3c 42             	add    %bh,(%edx,%eax,2)
 2002ae6:	42                   	inc    %edx
 2002ae7:	40                   	inc    %eax
 2002ae8:	40                   	inc    %eax
 2002ae9:	40                   	inc    %eax
 2002aea:	40                   	inc    %eax
 2002aeb:	42                   	inc    %edx
 2002aec:	42                   	inc    %edx
 2002aed:	3c 00                	cmp    $0x0,%al
	...
 2002b03:	00 78 44             	add    %bh,0x44(%eax)
 2002b06:	42                   	inc    %edx
 2002b07:	42                   	inc    %edx
 2002b08:	42                   	inc    %edx
 2002b09:	42                   	inc    %edx
 2002b0a:	42                   	inc    %edx
 2002b0b:	42                   	inc    %edx
 2002b0c:	44                   	inc    %esp
 2002b0d:	78 00                	js     2002b0f <unifont+0x88f>
	...
 2002b23:	00 7e 40             	add    %bh,0x40(%esi)
 2002b26:	40                   	inc    %eax
 2002b27:	40                   	inc    %eax
 2002b28:	7c 40                	jl     2002b6a <unifont+0x8ea>
 2002b2a:	40                   	inc    %eax
 2002b2b:	40                   	inc    %eax
 2002b2c:	40                   	inc    %eax
 2002b2d:	7e 00                	jle    2002b2f <unifont+0x8af>
	...
 2002b43:	00 7e 40             	add    %bh,0x40(%esi)
 2002b46:	40                   	inc    %eax
 2002b47:	40                   	inc    %eax
 2002b48:	7c 40                	jl     2002b8a <unifont+0x90a>
 2002b4a:	40                   	inc    %eax
 2002b4b:	40                   	inc    %eax
 2002b4c:	40                   	inc    %eax
 2002b4d:	40                   	inc    %eax
	...
 2002b62:	00 00                	add    %al,(%eax)
 2002b64:	3c 42                	cmp    $0x42,%al
 2002b66:	42                   	inc    %edx
 2002b67:	40                   	inc    %eax
 2002b68:	40                   	inc    %eax
 2002b69:	4e                   	dec    %esi
 2002b6a:	42                   	inc    %edx
 2002b6b:	42                   	inc    %edx
 2002b6c:	46                   	inc    %esi
 2002b6d:	3a 00                	cmp    (%eax),%al
	...
 2002b83:	00 42 42             	add    %al,0x42(%edx)
 2002b86:	42                   	inc    %edx
 2002b87:	42                   	inc    %edx
 2002b88:	7e 42                	jle    2002bcc <unifont+0x94c>
 2002b8a:	42                   	inc    %edx
 2002b8b:	42                   	inc    %edx
 2002b8c:	42                   	inc    %edx
 2002b8d:	42                   	inc    %edx
	...
 2002ba2:	00 00                	add    %al,(%eax)
 2002ba4:	3e 08 08             	or     %cl,%ds:(%eax)
 2002ba7:	08 08                	or     %cl,(%eax)
 2002ba9:	08 08                	or     %cl,(%eax)
 2002bab:	08 08                	or     %cl,(%eax)
 2002bad:	3e 00 00             	add    %al,%ds:(%eax)
	...
 2002bc4:	1f                   	pop    %ds
 2002bc5:	04 04                	add    $0x4,%al
 2002bc7:	04 04                	add    $0x4,%al
 2002bc9:	04 04                	add    $0x4,%al
 2002bcb:	44                   	inc    %esp
 2002bcc:	44                   	inc    %esp
 2002bcd:	38 00                	cmp    %al,(%eax)
	...
 2002be3:	00 42 44             	add    %al,0x44(%edx)
 2002be6:	48                   	dec    %eax
 2002be7:	50                   	push   %eax
 2002be8:	60                   	pusha  
 2002be9:	60                   	pusha  
 2002bea:	50                   	push   %eax
 2002beb:	48                   	dec    %eax
 2002bec:	44                   	inc    %esp
 2002bed:	42                   	inc    %edx
	...
 2002c02:	00 00                	add    %al,(%eax)
 2002c04:	40                   	inc    %eax
 2002c05:	40                   	inc    %eax
 2002c06:	40                   	inc    %eax
 2002c07:	40                   	inc    %eax
 2002c08:	40                   	inc    %eax
 2002c09:	40                   	inc    %eax
 2002c0a:	40                   	inc    %eax
 2002c0b:	40                   	inc    %eax
 2002c0c:	40                   	inc    %eax
 2002c0d:	7e 00                	jle    2002c0f <unifont+0x98f>
	...
 2002c23:	00 42 42             	add    %al,0x42(%edx)
 2002c26:	66 66 5a             	data16 pop %dx
 2002c29:	5a                   	pop    %edx
 2002c2a:	42                   	inc    %edx
 2002c2b:	42                   	inc    %edx
 2002c2c:	42                   	inc    %edx
 2002c2d:	42                   	inc    %edx
	...
 2002c42:	00 00                	add    %al,(%eax)
 2002c44:	42                   	inc    %edx
 2002c45:	62 62 52             	bound  %esp,0x52(%edx)
 2002c48:	52                   	push   %edx
 2002c49:	4a                   	dec    %edx
 2002c4a:	4a                   	dec    %edx
 2002c4b:	46                   	inc    %esi
 2002c4c:	46                   	inc    %esi
 2002c4d:	42                   	inc    %edx
	...
 2002c62:	00 00                	add    %al,(%eax)
 2002c64:	3c 42                	cmp    $0x42,%al
 2002c66:	42                   	inc    %edx
 2002c67:	42                   	inc    %edx
 2002c68:	42                   	inc    %edx
 2002c69:	42                   	inc    %edx
 2002c6a:	42                   	inc    %edx
 2002c6b:	42                   	inc    %edx
 2002c6c:	42                   	inc    %edx
 2002c6d:	3c 00                	cmp    $0x0,%al
	...
 2002c83:	00 7c 42 42          	add    %bh,0x42(%edx,%eax,2)
 2002c87:	42                   	inc    %edx
 2002c88:	7c 40                	jl     2002cca <unifont+0xa4a>
 2002c8a:	40                   	inc    %eax
 2002c8b:	40                   	inc    %eax
 2002c8c:	40                   	inc    %eax
 2002c8d:	40                   	inc    %eax
	...
 2002ca2:	00 00                	add    %al,(%eax)
 2002ca4:	3c 42                	cmp    $0x42,%al
 2002ca6:	42                   	inc    %edx
 2002ca7:	42                   	inc    %edx
 2002ca8:	42                   	inc    %edx
 2002ca9:	42                   	inc    %edx
 2002caa:	42                   	inc    %edx
 2002cab:	5a                   	pop    %edx
 2002cac:	66 3c 03             	data16 cmp $0x3,%al
	...
 2002cc3:	00 7c 42 42          	add    %bh,0x42(%edx,%eax,2)
 2002cc7:	42                   	inc    %edx
 2002cc8:	7c 48                	jl     2002d12 <unifont+0xa92>
 2002cca:	44                   	inc    %esp
 2002ccb:	44                   	inc    %esp
 2002ccc:	42                   	inc    %edx
 2002ccd:	42                   	inc    %edx
	...
 2002ce2:	00 00                	add    %al,(%eax)
 2002ce4:	3c 42                	cmp    $0x42,%al
 2002ce6:	42                   	inc    %edx
 2002ce7:	40                   	inc    %eax
 2002ce8:	30 0c 02             	xor    %cl,(%edx,%eax,1)
 2002ceb:	42                   	inc    %edx
 2002cec:	42                   	inc    %edx
 2002ced:	3c 00                	cmp    $0x0,%al
	...
 2002d03:	00 7f 08             	add    %bh,0x8(%edi)
 2002d06:	08 08                	or     %cl,(%eax)
 2002d08:	08 08                	or     %cl,(%eax)
 2002d0a:	08 08                	or     %cl,(%eax)
 2002d0c:	08 08                	or     %cl,(%eax)
	...
 2002d22:	00 00                	add    %al,(%eax)
 2002d24:	42                   	inc    %edx
 2002d25:	42                   	inc    %edx
 2002d26:	42                   	inc    %edx
 2002d27:	42                   	inc    %edx
 2002d28:	42                   	inc    %edx
 2002d29:	42                   	inc    %edx
 2002d2a:	42                   	inc    %edx
 2002d2b:	42                   	inc    %edx
 2002d2c:	42                   	inc    %edx
 2002d2d:	3c 00                	cmp    $0x0,%al
	...
 2002d43:	00 41 41             	add    %al,0x41(%ecx)
 2002d46:	41                   	inc    %ecx
 2002d47:	22 22                	and    (%edx),%ah
 2002d49:	22 14 14             	and    (%esp,%edx,1),%dl
 2002d4c:	08 08                	or     %cl,(%eax)
	...
 2002d62:	00 00                	add    %al,(%eax)
 2002d64:	42                   	inc    %edx
 2002d65:	42                   	inc    %edx
 2002d66:	42                   	inc    %edx
 2002d67:	42                   	inc    %edx
 2002d68:	5a                   	pop    %edx
 2002d69:	5a                   	pop    %edx
 2002d6a:	66 66 42             	data16 inc %dx
 2002d6d:	42                   	inc    %edx
	...
 2002d82:	00 00                	add    %al,(%eax)
 2002d84:	42                   	inc    %edx
 2002d85:	42                   	inc    %edx
 2002d86:	24 24                	and    $0x24,%al
 2002d88:	18 18                	sbb    %bl,(%eax)
 2002d8a:	24 24                	and    $0x24,%al
 2002d8c:	42                   	inc    %edx
 2002d8d:	42                   	inc    %edx
	...
 2002da2:	00 00                	add    %al,(%eax)
 2002da4:	41                   	inc    %ecx
 2002da5:	41                   	inc    %ecx
 2002da6:	22 22                	and    (%edx),%ah
 2002da8:	14 08                	adc    $0x8,%al
 2002daa:	08 08                	or     %cl,(%eax)
 2002dac:	08 08                	or     %cl,(%eax)
	...
 2002dc2:	00 00                	add    %al,(%eax)
 2002dc4:	7e 02                	jle    2002dc8 <unifont+0xb48>
 2002dc6:	02 04 08             	add    (%eax,%ecx,1),%al
 2002dc9:	10 20                	adc    %ah,(%eax)
 2002dcb:	40                   	inc    %eax
 2002dcc:	40                   	inc    %eax
 2002dcd:	7e 00                	jle    2002dcf <unifont+0xb4f>
	...
 2002de3:	0e                   	push   %cs
 2002de4:	08 08                	or     %cl,(%eax)
 2002de6:	08 08                	or     %cl,(%eax)
 2002de8:	08 08                	or     %cl,(%eax)
 2002dea:	08 08                	or     %cl,(%eax)
 2002dec:	08 08                	or     %cl,(%eax)
 2002dee:	0e                   	push   %cs
	...
 2002e03:	00 40 40             	add    %al,0x40(%eax)
 2002e06:	20 10                	and    %dl,(%eax)
 2002e08:	10 08                	adc    %cl,(%eax)
 2002e0a:	08 04 02             	or     %al,(%edx,%eax,1)
 2002e0d:	02 00                	add    (%eax),%al
	...
 2002e23:	70 10                	jo     2002e35 <unifont+0xbb5>
 2002e25:	10 10                	adc    %dl,(%eax)
 2002e27:	10 10                	adc    %dl,(%eax)
 2002e29:	10 10                	adc    %dl,(%eax)
 2002e2b:	10 10                	adc    %dl,(%eax)
 2002e2d:	10 70 00             	adc    %dh,0x0(%eax)
	...
 2002e40:	00 00                	add    %al,(%eax)
 2002e42:	18 24 42             	sbb    %ah,(%edx,%eax,2)
	...
 2002e6d:	00 7f 00             	add    %bh,0x0(%edi)
	...
 2002e80:	00 20                	add    %ah,(%eax)
 2002e82:	10 08                	adc    %cl,(%eax)
	...
 2002ea4:	00 00                	add    %al,(%eax)
 2002ea6:	3c 42                	cmp    $0x42,%al
 2002ea8:	02 3e                	add    (%esi),%bh
 2002eaa:	42                   	inc    %edx
 2002eab:	42                   	inc    %edx
 2002eac:	46                   	inc    %esi
 2002ead:	3a 00                	cmp    (%eax),%al
	...
 2002ec3:	40                   	inc    %eax
 2002ec4:	40                   	inc    %eax
 2002ec5:	40                   	inc    %eax
 2002ec6:	5c                   	pop    %esp
 2002ec7:	62 42 42             	bound  %eax,0x42(%edx)
 2002eca:	42                   	inc    %edx
 2002ecb:	42                   	inc    %edx
 2002ecc:	62 5c 00 00          	bound  %ebx,0x0(%eax,%eax,1)
	...
 2002ee4:	00 00                	add    %al,(%eax)
 2002ee6:	3c 42                	cmp    $0x42,%al
 2002ee8:	40                   	inc    %eax
 2002ee9:	40                   	inc    %eax
 2002eea:	40                   	inc    %eax
 2002eeb:	40                   	inc    %eax
 2002eec:	42                   	inc    %edx
 2002eed:	3c 00                	cmp    $0x0,%al
	...
 2002f03:	02 02                	add    (%edx),%al
 2002f05:	02 3a                	add    (%edx),%bh
 2002f07:	46                   	inc    %esi
 2002f08:	42                   	inc    %edx
 2002f09:	42                   	inc    %edx
 2002f0a:	42                   	inc    %edx
 2002f0b:	42                   	inc    %edx
 2002f0c:	46                   	inc    %esi
 2002f0d:	3a 00                	cmp    (%eax),%al
	...
 2002f23:	00 00                	add    %al,(%eax)
 2002f25:	00 3c 42             	add    %bh,(%edx,%eax,2)
 2002f28:	42                   	inc    %edx
 2002f29:	7e 40                	jle    2002f6b <unifont+0xceb>
 2002f2b:	40                   	inc    %eax
 2002f2c:	42                   	inc    %edx
 2002f2d:	3c 00                	cmp    $0x0,%al
	...
 2002f43:	0c 10                	or     $0x10,%al
 2002f45:	10 10                	adc    %dl,(%eax)
 2002f47:	7c 10                	jl     2002f59 <unifont+0xcd9>
 2002f49:	10 10                	adc    %dl,(%eax)
 2002f4b:	10 10                	adc    %dl,(%eax)
 2002f4d:	10 00                	adc    %al,(%eax)
	...
 2002f63:	00 00                	add    %al,(%eax)
 2002f65:	02 3a                	add    (%edx),%bh
 2002f67:	44                   	inc    %esp
 2002f68:	44                   	inc    %esp
 2002f69:	44                   	inc    %esp
 2002f6a:	38 20                	cmp    %ah,(%eax)
 2002f6c:	3c 42                	cmp    $0x42,%al
 2002f6e:	42                   	inc    %edx
 2002f6f:	3c 00                	cmp    $0x0,%al
	...
 2002f81:	00 00                	add    %al,(%eax)
 2002f83:	40                   	inc    %eax
 2002f84:	40                   	inc    %eax
 2002f85:	40                   	inc    %eax
 2002f86:	5c                   	pop    %esp
 2002f87:	62 42 42             	bound  %eax,0x42(%edx)
 2002f8a:	42                   	inc    %edx
 2002f8b:	42                   	inc    %edx
 2002f8c:	42                   	inc    %edx
 2002f8d:	42                   	inc    %edx
	...
 2002fa2:	00 08                	add    %cl,(%eax)
 2002fa4:	08 00                	or     %al,(%eax)
 2002fa6:	18 08                	sbb    %cl,(%eax)
 2002fa8:	08 08                	or     %cl,(%eax)
 2002faa:	08 08                	or     %cl,(%eax)
 2002fac:	08 3e                	or     %bh,(%esi)
	...
 2002fc2:	00 04 04             	add    %al,(%esp,%eax,1)
 2002fc5:	00 0c 04             	add    %cl,(%esp,%eax,1)
 2002fc8:	04 04                	add    $0x4,%al
 2002fca:	04 04                	add    $0x4,%al
 2002fcc:	04 04                	add    $0x4,%al
 2002fce:	48                   	dec    %eax
 2002fcf:	30 00                	xor    %al,(%eax)
	...
 2002fe1:	00 00                	add    %al,(%eax)
 2002fe3:	40                   	inc    %eax
 2002fe4:	40                   	inc    %eax
 2002fe5:	40                   	inc    %eax
 2002fe6:	44                   	inc    %esp
 2002fe7:	48                   	dec    %eax
 2002fe8:	50                   	push   %eax
 2002fe9:	60                   	pusha  
 2002fea:	50                   	push   %eax
 2002feb:	48                   	dec    %eax
 2002fec:	44                   	inc    %esp
 2002fed:	42                   	inc    %edx
	...
 2003002:	00 18                	add    %bl,(%eax)
 2003004:	08 08                	or     %cl,(%eax)
 2003006:	08 08                	or     %cl,(%eax)
 2003008:	08 08                	or     %cl,(%eax)
 200300a:	08 08                	or     %cl,(%eax)
 200300c:	08 3e                	or     %bh,(%esi)
	...
 2003026:	76 49                	jbe    2003071 <unifont+0xdf1>
 2003028:	49                   	dec    %ecx
 2003029:	49                   	dec    %ecx
 200302a:	49                   	dec    %ecx
 200302b:	49                   	dec    %ecx
 200302c:	49                   	dec    %ecx
 200302d:	49                   	dec    %ecx
	...
 2003046:	5c                   	pop    %esp
 2003047:	62 42 42             	bound  %eax,0x42(%edx)
 200304a:	42                   	inc    %edx
 200304b:	42                   	inc    %edx
 200304c:	42                   	inc    %edx
 200304d:	42                   	inc    %edx
	...
 2003066:	3c 42                	cmp    $0x42,%al
 2003068:	42                   	inc    %edx
 2003069:	42                   	inc    %edx
 200306a:	42                   	inc    %edx
 200306b:	42                   	inc    %edx
 200306c:	42                   	inc    %edx
 200306d:	3c 00                	cmp    $0x0,%al
	...
 2003083:	00 00                	add    %al,(%eax)
 2003085:	00 5c 62 42          	add    %bl,0x42(%edx,%eiz,2)
 2003089:	42                   	inc    %edx
 200308a:	42                   	inc    %edx
 200308b:	42                   	inc    %edx
 200308c:	62 5c 40 40          	bound  %ebx,0x40(%eax,%eax,2)
	...
 20030a4:	00 00                	add    %al,(%eax)
 20030a6:	3a 46 42             	cmp    0x42(%esi),%al
 20030a9:	42                   	inc    %edx
 20030aa:	42                   	inc    %edx
 20030ab:	42                   	inc    %edx
 20030ac:	46                   	inc    %esi
 20030ad:	3a 02                	cmp    (%edx),%al
 20030af:	02 00                	add    (%eax),%al
	...
 20030c5:	00 5c 62 42          	add    %bl,0x42(%edx,%eiz,2)
 20030c9:	40                   	inc    %eax
 20030ca:	40                   	inc    %eax
 20030cb:	40                   	inc    %eax
 20030cc:	40                   	inc    %eax
 20030cd:	40                   	inc    %eax
	...
 20030e6:	3c 42                	cmp    $0x42,%al
 20030e8:	40                   	inc    %eax
 20030e9:	30 0c 02             	xor    %cl,(%edx,%eax,1)
 20030ec:	42                   	inc    %edx
 20030ed:	3c 00                	cmp    $0x0,%al
	...
 2003103:	00 10                	add    %dl,(%eax)
 2003105:	10 10                	adc    %dl,(%eax)
 2003107:	7c 10                	jl     2003119 <unifont+0xe99>
 2003109:	10 10                	adc    %dl,(%eax)
 200310b:	10 10                	adc    %dl,(%eax)
 200310d:	0c 00                	or     $0x0,%al
	...
 2003123:	00 00                	add    %al,(%eax)
 2003125:	00 42 42             	add    %al,0x42(%edx)
 2003128:	42                   	inc    %edx
 2003129:	42                   	inc    %edx
 200312a:	42                   	inc    %edx
 200312b:	42                   	inc    %edx
 200312c:	46                   	inc    %esi
 200312d:	3a 00                	cmp    (%eax),%al
	...
 2003143:	00 00                	add    %al,(%eax)
 2003145:	00 42 42             	add    %al,0x42(%edx)
 2003148:	42                   	inc    %edx
 2003149:	24 24                	and    $0x24,%al
 200314b:	24 18                	and    $0x18,%al
 200314d:	18 00                	sbb    %al,(%eax)
	...
 2003163:	00 00                	add    %al,(%eax)
 2003165:	00 41 49             	add    %al,0x49(%ecx)
 2003168:	49                   	dec    %ecx
 2003169:	49                   	dec    %ecx
 200316a:	49                   	dec    %ecx
 200316b:	49                   	dec    %ecx
 200316c:	49                   	dec    %ecx
 200316d:	36 00 00             	add    %al,%ss:(%eax)
	...
 2003184:	00 00                	add    %al,(%eax)
 2003186:	42                   	inc    %edx
 2003187:	42                   	inc    %edx
 2003188:	24 18                	and    $0x18,%al
 200318a:	18 24 42             	sbb    %ah,(%edx,%eax,2)
 200318d:	42                   	inc    %edx
	...
 20031a6:	42                   	inc    %edx
 20031a7:	42                   	inc    %edx
 20031a8:	42                   	inc    %edx
 20031a9:	42                   	inc    %edx
 20031aa:	42                   	inc    %edx
 20031ab:	26 1a 02             	sbb    %es:(%edx),%al
 20031ae:	02 3c 00             	add    (%eax,%eax,1),%bh
	...
 20031c5:	00 7e 02             	add    %bh,0x2(%esi)
 20031c8:	04 08                	add    $0x8,%al
 20031ca:	10 20                	adc    %ah,(%eax)
 20031cc:	40                   	inc    %eax
 20031cd:	7e 00                	jle    20031cf <unifont+0xf4f>
	...
 20031e3:	0c 10                	or     $0x10,%al
 20031e5:	10 08                	adc    %cl,(%eax)
 20031e7:	08 10                	or     %dl,(%eax)
 20031e9:	20 10                	and    %dl,(%eax)
 20031eb:	08 08                	or     %cl,(%eax)
 20031ed:	10 10                	adc    %dl,(%eax)
 20031ef:	0c 00                	or     $0x0,%al
	...
 2003201:	00 08                	add    %cl,(%eax)
 2003203:	08 08                	or     %cl,(%eax)
 2003205:	08 08                	or     %cl,(%eax)
 2003207:	08 08                	or     %cl,(%eax)
 2003209:	08 08                	or     %cl,(%eax)
 200320b:	08 08                	or     %cl,(%eax)
 200320d:	08 08                	or     %cl,(%eax)
 200320f:	08 00                	or     %al,(%eax)
	...
 2003221:	00 00                	add    %al,(%eax)
 2003223:	30 08                	xor    %cl,(%eax)
 2003225:	08 10                	or     %dl,(%eax)
 2003227:	10 08                	adc    %cl,(%eax)
 2003229:	04 08                	add    $0x8,%al
 200322b:	10 10                	adc    %dl,(%eax)
 200322d:	08 08                	or     %cl,(%eax)
 200322f:	30 00                	xor    %al,(%eax)
	...
 2003241:	00 00                	add    %al,(%eax)
 2003243:	31 49 46             	xor    %ecx,0x46(%ecx)
	...
 200325e:	00 00                	add    %al,(%eax)
 2003260:	aa                   	stos   %al,%es:(%edi)
 2003261:	aa                   	stos   %al,%es:(%edi)
 2003262:	00 01                	add    %al,(%ecx)
 2003264:	80 00 00             	addb   $0x0,(%eax)
 2003267:	01 80 00 73 d1 ca    	add    %eax,-0x352e8d00(%eax)
 200326d:	10 4b d1             	adc    %cl,-0x2f(%ebx)
 2003270:	ca 10 73             	lret   $0x7310
 2003273:	df 80 00 00 01 80    	fild   -0x7fff0000(%eax)
 2003279:	00 00                	add    %al,(%eax)
 200327b:	01                   	.byte 0x1
 200327c:	80 00 55             	addb   $0x55,(%eax)
 200327f:	55                   	push   %ebp

Disassembly of section .bss:

02003280 <cnt>:
	...

020032a0 <kb_buf>:
	...

020034a0 <g_sysintr>:
 20034a0:	00 00                	add    %al,(%eax)
	...

020034a4 <g_sysgrap>:
	...
